RESET_SSP:      	0006E678
RESET_PC:       	00000228
BUS_ERROR:      	000000C0
ADDRESS_ERROR:  	000000C8
INVALID_CMD:    	000000D0
CALC_BY_0:      	000000D8
CHK_CMD:        	000000E0
TRAPV_CMD:      	000000E8
PRIV_VIOL:      	000000F0
TRACE:          	000000F8
LINE_1010:      	00000100
LINE_1111:      	00000108
RESERVED_12:    	00000110
RESERVED_13:    	00000118
RESERVED_14:    	00000120
UNINIT_INT:     	00000128
RESERVED_16:    	00000130
RESERVED_17:    	00000138
RESERVED_18:    	00000140
RESERVED_19:    	00000148
RESERVED_20:    	00000150
RESERVED_21:    	00000158
RESERVED_22:    	00000160
RESERVED_23:    	00000168
SPURIOUS_INT:   	00000170
LVL1_INT:       	0000033A
LVL2_INT:       	00000180
LVL3_INT:       	00000186
LVL4_INT:       	0000018C
LVL5_INT:       	00000192
LVL6_INT:       	00000198
LVL7_INT:       	0000019E
TRAP_32:        	000001A4
TRAP_33:        	000001AA
TRAP_34:        	000001B0
TRAP_35:        	000001B6
TRAP_36:        	000001BC
TRAP_37:        	000001C2
TRAP_38:        	000001C8
TRAP_39:        	000001CE
TRAP_40:        	000001D4
TRAP_41:        	000001DA
TRAP_42:        	000001E0
TRAP_43:        	000001E6
TRAP_44:        	000001EC
TRAP_45:        	000001F2
TRAP_46:        	000001F8
TRAP_47:        	000001FE

0000C0 3F3C 0002            	MOVE.W  #$00000002,-(A7) 		;
0000C4 6000 013C            	BRA     #$013C				;
0000C8 3F3C 0003            	MOVE.W  #$00000003,-(A7) 		;
0000CC 6000 0134            	BRA     #$0134				;
0000D0 3F3C 0004            	MOVE.W  #$00000004,-(A7) 		;
0000D4 6000 012C            	BRA     #$012C				;
0000D8 3F3C 0005            	MOVE.W  #$00000005,-(A7) 		;
0000DC 6000 0124            	BRA     #$0124				;
0000E0 3F3C 0006            	MOVE.W  #$00000006,-(A7) 		;
0000E4 6000 011C            	BRA     #$011C				;
0000E8 3F3C 0007            	MOVE.W  #$00000007,-(A7) 		;
0000EC 6000 0114            	BRA     #$0114				;
0000F0 3F3C 0008            	MOVE.W  #$00000008,-(A7) 		;
0000F4 6000 010C            	BRA     #$010C				;
0000F8 3F3C 0009            	MOVE.W  #$00000009,-(A7) 		;
0000FC 6000 0104            	BRA     #$0104				;
000100 3F3C 000A            	MOVE.W  #$0000000A,-(A7) 		;
000104 6000 00FC            	BRA     #$00FC				;
000108 3F3C 000B            	MOVE.W  #$0000000B,-(A7) 		;
00010C 6000 00F4            	BRA     #$00F4				;
000110 3F3C 000C            	MOVE.W  #$0000000C,-(A7) 		;
000114 6000 00EC            	BRA     #$00EC				;
000118 3F3C 000D            	MOVE.W  #$0000000D,-(A7) 		;
00011C 6000 00E4            	BRA     #$00E4				;
000120 3F3C 000E            	MOVE.W  #$0000000E,-(A7) 		;
000124 6000 00DC            	BRA     #$00DC				;
000128 3F3C 000F            	MOVE.W  #$0000000F,-(A7) 		;
00012C 6000 00D4            	BRA     #$00D4				;
000130 3F3C 0010            	MOVE.W  #$00000010,-(A7) 		;
000134 6000 00CC            	BRA     #$00CC				;
000138 3F3C 0011            	MOVE.W  #$00000011,-(A7) 		;
00013C 6000 00C4            	BRA     #$00C4				;
000140 3F3C 0012            	MOVE.W  #$00000012,-(A7) 		;
000144 6000 00BC            	BRA     #$00BC				;
000148 3F3C 0013            	MOVE.W  #$00000013,-(A7) 		;
00014C 6000 00B4            	BRA     #$00B4				;
000150 3F3C 0014            	MOVE.W  #$00000014,-(A7) 		;
000154 6000 00AC            	BRA     #$00AC				;
000158 3F3C 0015            	MOVE.W  #$00000015,-(A7) 		;
00015C 6000 00A4            	BRA     #$00A4				;
000160 3F3C 0016            	MOVE.W  #$00000016,-(A7) 		;
000164 6000 009C            	BRA     #$009C				;
000168 3F3C 0017            	MOVE.W  #$00000017,-(A7) 		;
00016C 6000 0094            	BRA     #$0094				;
000170 3F3C 0018            	MOVE.W  #$00000018,-(A7) 		;
000174 6000 008C            	BRA     #$008C				;
000178 3F3C 0019            	MOVE.W  #$00000019,-(A7) 		;
00017C 6000 0084            	BRA     #$0084				;
000180 3F3C 001A            	MOVE.W  #$0000001A,-(A7) 		;
000184 607C                 	BRA     #$007C				;
000186 3F3C 001B            	MOVE.W  #$0000001B,-(A7) 		;
00018A 6076                 	BRA     #$0076				;
00018C 3F3C 001C            	MOVE.W  #$0000001C,-(A7) 		;
000190 6070                 	BRA     #$0070				;
000192 3F3C 001D            	MOVE.W  #$0000001D,-(A7) 		;
000196 606A                 	BRA     #$006A				;
000198 3F3C 001E            	MOVE.W  #$0000001E,-(A7) 		;
00019C 6064                 	BRA     #$0064				;
00019E 3F3C 001F            	MOVE.W  #$0000001F,-(A7) 		;
0001A2 605E                 	BRA     #$005E				;
0001A4 3F3C 0020            	MOVE.W  #$00000020,-(A7) 		;
0001A8 6058                 	BRA     #$0058				;
0001AA 3F3C 0021            	MOVE.W  #$00000021,-(A7) 		;
0001AE 6052                 	BRA     #$0052				;
0001B0 3F3C 0022            	MOVE.W  #$00000022,-(A7) 		;
0001B4 604C                 	BRA     #$004C				;
0001B6 3F3C 0023            	MOVE.W  #$00000023,-(A7) 		;
0001BA 6046                 	BRA     #$0046				;
0001BC 3F3C 0024            	MOVE.W  #$00000024,-(A7) 		;
0001C0 6040                 	BRA     #$0040				;
0001C2 3F3C 0025            	MOVE.W  #$00000025,-(A7) 		;
0001C6 603A                 	BRA     #$003A				;
0001C8 3F3C 0026            	MOVE.W  #$00000026,-(A7) 		;
0001CC 6034                 	BRA     #$0034				;
0001CE 3F3C 0027            	MOVE.W  #$00000027,-(A7) 		;
0001D2 602E                 	BRA     #$002E				;
0001D4 3F3C 0028            	MOVE.W  #$00000028,-(A7) 		;
0001D8 6028                 	BRA     #$0028				;
0001DA 3F3C 0029            	MOVE.W  #$00000029,-(A7) 		;
0001DE 6022                 	BRA     #$0022				;
0001E0 3F3C 002A            	MOVE.W  #$0000002A,-(A7) 		;
0001E4 601C                 	BRA     #$001C				;
0001E6 3F3C 002B            	MOVE.W  #$0000002B,-(A7) 		;
0001EA 6016                 	BRA     #$0016				;
0001EC 3F3C 002C            	MOVE.W  #$0000002C,-(A7) 		;
0001F0 6010                 	BRA     #$0010				;
0001F2 3F3C 002D            	MOVE.W  #$0000002D,-(A7) 		;
0001F6 600A                 	BRA     #$000A				;
0001F8 3F3C 002E            	MOVE.W  #$0000002E,-(A7) 		;
0001FC 6004                 	BRA     #$0004				;
0001FE 3F3C 002F            	MOVE.W  #$0000002F,-(A7) 		;
000202 33DF         0007FE12	MOVE.W  (A7)+,$0007FE12.L 		;
000208 48F9 FFFF    0007FE80	MOVEM.L  FFFF, $0007FE80.L		;
000210 4E68                 	MOVE    USP, A0			;
000212 23C8         0007FEA0	MOVE.L  A0,$0007FEA0.L 		;
000218 40F9         0007FEA4	MOVE    SR, $0007FEA4.L		;
00021E 50F9         0007FE10	ST      $0007FE10.L			;
000224 4E72                 	STOP    					;
000226 2700                 	MOVE.L  D0,-(A3) 		;

RESET_PC:
000228 46FC         2700    	MOVE    #$00002700, SR			;
00022C 4FF9         0006E678	LEA     $0006E678.L, A7			;
000232 49F9         00100000	LEA     $00100000.L, A4			;
000238 4279         0007FE00	CLR     $0007FE00.L			;
00023E 397C 020F    0400    	MOVE.W  #$0000020F,(#$0400,A4) 	;
000244 7055                 	MOVEQ   #$55, D0				;
000246 7233                 	MOVEQ   #$33, D1				;
000248 740F                 	MOVEQ   #$0F, D2				;
00024A 3940         0424    	MOVE.W  D0,(#$0424,A4) 			;
00024E 3941         0426    	MOVE.W  D1,(#$0426,A4) 			;
000252 3942         0428    	MOVE.W  D2,(#$0428,A4) 			;
000256 426C         041E    	CLR     (#$041E,A4)			;SCIEB = 0;
00025A 426C         0422    	CLR     (#$0422,A4)			;SCIRE = 0;
00025E 426C         042A    	CLR     (#$042A,A4)			;MCIEB = 0;
000262 426C         042E    	CLR     (#$042E,A4)			;MCIRE = 0;
000266 701F                 	MOVEQ   #$1F, D0				;
000268 7E00                 	MOVEQ   #$00, D7				;
00026A 6130                 	BRS     L00029C				;L00029C(i);
00026C DE7C         0020    	ADD.W   D7, #$00000020			;
000270 51C8 FFF8            	DBRA    D0, #$FFF8			;
000274 0054 1000            	ORI.W   #$1000, (A4) 			;SLOT[0].KX = 1;
000278 4239         0007FE10	CLR     $0007FE10.L			;
00027E 614A                 	BRS     L0002CA				;L0002CA();
000280 6132                 	BRS     L0002B4				;L0002B4();
000282 49F9         00100000	LEA     $00100000.L, A4			;
000288 397C 0150    0418    	MOVE.W  #$00000150,(#$0418,A4) 	;TIMA = 0x50; TACTL = 1;
00028E 006C 0040    041E    	ORI.W   #$0040, (#$041E,A4) 		;SCIEB |= 0x0040;
000294 46FC         2000    	MOVE    #$00002000, SR			;
000298 4E71                 	NOP     					;
00029A 60FC                 	BRA     #$FFFC				;while (1);

L00029C:										;(int n)
00029C 39BC 001F    700A    	MOVE.W  #$0000001F,(#$0A,A4,D7) 	;SLOT[n].RR = 0x1F;
0002A2 0274 1FFF    7016    	ANDI.W  #$1FFF, (#$16,A4,D7)		;SLOT[n].DISDL = 0;
0002A8 0274 F79F    7000    	ANDI.W  #$F79F, (#$00,A4,D7)		;SLOT[n].LPCTL = 0; SLOT[n].KB = 0;
0002AE 4274         7014    	CLR     (#$14,A4,D7)			;SLOT[n].ISEL = 0; SLOT[n].IMXL = 0;
0002B2 4E75                 	RTS     					;

L0002B4:
0002B4 41EE         03E6    	LEA     (#$03E6,A6), A0			;
0002B8 33FC F800    00100408	MOVE.W  #$0000F800,$00100408.L 	;MSLC = 0x1F
0002C0 1D79 0007FE0C03E4    	MOVE.B  $0007FE0C.L,(#$03E4,A6) 	;
0002C8 4E75                 	RTS     					;

L0002CA:
0002CA 614C                 	BRS     #$004C				;
0002CC 41F9         0006D7CE	LEA     $0006D7CE.L, A0			;
0002D2 323C 003F            	MOVE.W  #$0000003F,D1 			;
0002D6 7000                 	MOVEQ   #$00, D0				;
0002D8 20C0                 	MOVE.L  D0,(A0)+ 				;
0002DA 51C9 FFFC            	DBRA    D1, #$FFFC			;
0002DE 41F9         0006D8CE	LEA     $0006D8CE.L, A0			;
0002E4 323C 04D4            	MOVE.W  #$000004D4,D1 			;
0002E8 30C0                 	MOVE.W  D0,(A0)+ 				;
0002EA 51C9 FFFC            	DBRA    D1, #$FFFC			;
0002EE 4BF9         0006D84E	LEA     $0006D84E.L, A5			;
0002F4 7001                 	MOVEQ   #$01, D0				;
0002F6 720F                 	MOVEQ   #$0F, D1				;
0002F8 1B40         0006    	MOVE.B  D0,(#$0006,A5) 			;
0002FC 504D                 	ADDQ.W  #$0, A5				;
0002FE 51C9 FFF8            	DBRA    D1, #$FFF8			;
000302 4DF9         0006D8CE	LEA     $0006D8CE.L, A6			;
000308 4BF9         0006D84E	LEA     $0006D84E.L, A5			;
00030E 6100 0144            	BRS     #$0144				;
000312 6100 0BAC            	BRS     #$0BAC				;
000316 4E75                 	RTS     					;

000318 41F9         00001457	LEA     $00001457.L, A0			;
00031E 43F9         00001416	LEA     $00001416.L, A1			;
000324 1239 0007FE0D        	MOVE.B  $0007FE0D.L,D1 			;
00032A 743E                 	MOVEQ   #$3E, D2				;
00032C 50D9                 	ST      (A1)+				;
00032E 1018                 	MOVE.B  (A0)+,D0 				;
000330 D001                 	ADD.B   D1, D0				;
000332 12C0                 	MOVE.B  D0,(A1)+ 				;
000334 51CA FFF8            	DBRA    D2, #$FFF8			;
000338 4E75                 	RTS     					;

LVL1_INT:										;
00033A 48E7 FFFE            	MOVEM.L  FFFE, -(A7)			;
00033E 4BF9         00100000	LEA     $00100000.L, A5			;
000344 3B7C 0150    0418    	MOVE.W  #$00000150,(#$0418,A5) 	;TIMA = 0x50; TACTL = 1;
00034A 006D 0040    0422    	ORI.W   #$0040, (#$0422,A5) 		;SCIRE |= 0x0040;
000350 4DF9         0006D8CE	LEA     $0006D8CE.L, A6			;
000356 6100 00DE            	BRS     #$00DE				;
00035A 0055 1000            	ORI.W   #$1000, (A5) 			;
00035E 4BF9         0006D84E	LEA     $0006D84E.L, A5			;
000364 6100 1060            	BRS     #$1060				;
000368 611E                 	BRS     #$001E				;
00036A 4A2E         03E3    	TST.B   (#$03E3,A6)			;
00036E 6610                 	BNE     #$0010				;
000370 6100 0766            	BRS     #$0766				;
000374 6100 0118            	BRS     #$0118				;
000378 6100 1338            	BRS     #$1338				;
00037C 6100 1948            	BRS     #$1948				;
000380 6160                 	BRS     #$0060				;L0003E2();
000382 4CDF 7FFF            	MOVEM.L  (A7)+, 7FFF			;
000386 4E73                 	RTE     					;

000388 4A39         0007FE00	TST.B   $0007FE00.L			;
00038E 672E                 	BEQ     #$002E				;
000390 4239         0007FE00	CLR     $0007FE00.L			;
000396 2039 0007FE04        	MOVE.L  $0007FE04.L,D0 			;
00039C B0BC         626F6F74	CMP.L   #$626F6F74, D0			;
0003A2 671C                 	BEQ     #$001C				;
0003A4 B0BC         73746F70	CMP.L   #$73746F70, D0			;
0003AA 671A                 	BEQ     #$001A				;
0003AC B0BC         636F6E74	CMP.L   #$636F6E74, D0			;
0003B2 6720                 	BEQ     #$0020				;
0003B4 2C80                 	MOVE.L  D0,(A6) 				;
0003B6 2D79 0007FE080004    	MOVE.L  $0007FE08.L,(#$0004,A6) 	;
0003BE 4E75                 	RTS     					;
0003C0 4EF9         00000228	JMP     $00000228.L			;
0003C6 50EE         03E3    	ST      (#$03E3,A6)			;
0003CA 33FC 0200    00100400	MOVE.W  #$00000200,$00100400.L 	;
0003D2 60EA                 	BRA     #$FFEA				;
0003D4 422E         03E3    	CLR     (#$03E3,A6)			;
0003D8 33FC 020F    00100400	MOVE.W  #$0000020F,$00100400.L 	;
0003E0 60DC                 	BRA     #$FFDC				;

L0003E2:
0003E2 48E7 80C0            	MOVEM.L  80C0, -(A7)			;
0003E6 43F9         00100000	LEA     $00100000.L, A1			;
0003EC 41EE         03E6    	LEA     (#$03E6,A6), A0			;
0003F0 7407                 	MOVEQ   #$07, D2				;
0003F2 C479         0007FE0E	AND.W   D2, $0007FE0E.L			;
0003F8 701F                 	MOVEQ   #$1F, D0				;
0003FA 720F                 	MOVEQ   #$0F, D1				;
0003FC 4A2E         03E4    	TST.B   (#$03E4,A6)			;
000400 660A                 	BNE     L00040C				;
000402 7000                 	MOVEQ   #$00, D0				;
000404 7200                 	MOVEQ   #$00, D1				;
000406 5302                 	SUBQ.B  #$1, D2				;
000408 6A02                 	BPL     #$0002				;
00040A 7400                 	MOVEQ   #$00, D2				;
L00040C:
00040C EB4A                 	LSL.W   #5, D2				;
00040E 8002                 	OR.B    D2, D0				;
000410 8202                 	OR.B    D2, D1				;
000412 1140         0217    	MOVE.B  D0,(#$0217,A0) 			;
000416 1141         0237    	MOVE.B  D1,(#$0237,A0) 			;
00041A 2008                 	MOVE.L  A0,D0 				;
00041C 3340         0412    	MOVE.W  D0,(#$0412,A1) 			;
000420 E888                 	LSR.L   #4, D0				;
000422 C07C         F000    	AND.W   D0, #$0000F000			;DMEA = *(ptr+0x03E6);
000426 3340         0414    	MOVE.W  D0,(#$0414,A1) 			;DRGA = 0;
00042A 337C 1400    0416    	MOVE.W  #$00001400,(#$0416,A1) 	;
000430 4CDF 0301            	MOVEM.L  (A7)+, 301			;
000434 4E75                 	RTS     					;

000436 48E7 8040            	MOVEM.L  8040, -(A7)		;
00043A 43F9         00100000	LEA     $00100000.L, A1		;
000440 3029 0416            	MOVE.W  (#$0416,A1),D0 		;
000444 4E71                 	NOP     					;
000446 0800 000C            	BTST    #$0000000C, D0			;
00044A 66F4                 	BNE     #$FFF4				;
00044C 4CDF 0201            	MOVEM.L  (A7)+, 201		;
000450 4E75                 	RTS     					;
000452 0000 49F9            	ORI.B   #$49F9, D0 			;
000456 0000 0452            	ORI.B   #$0452, D0 			;
00045A 1CBC 0080            	MOVE.B  #$00000080,(A6) 		;
00045E 41F9         00001FF8	LEA     $00001FF8.L, A0		;
000464 7400                 	MOVEQ   #$00, D2			;
000466 6100 0A64            	BRS     #$0A64				;
00046A 7035                 	MOVEQ   #$35, D0			;
00046C 7214                 	MOVEQ   #$14, D1			;
00046E 6100 0A5A            	BRS     #$0A5A				;
000472 4E75                 	RTS     					;
000474 7407                 	MOVEQ   #$07, D2			;
000476 41EE         0020    	LEA     (#$0020,A6), A0		;
00047A 4A28         02C0    	TST.B   (#$02C0,A0)			;
00047E 6A04                 	BPL     #$0004				;
000480 08D0 0002            	BSET    #$02, (A0)			;
000484 41E8         0020    	LEA     (#$0020,A0), A0		;
000488 51CA FFF0            	DBRA    D2, #$FFF0			;
00048C 4E75                 	RTS     					;
00048E 61E4                 	BRS     #$FFE4				;
000490 49EE         0020    	LEA     (#$0020,A6), A4		;
000494 7E1D                 	MOVEQ   #$1D, D7			;
000496 4A14                 	TST.B   (A4)			;
000498 6A02                 	BPL     #$0002				;
00049A 610A                 	BRS     #$000A				;
00049C 49EC         0020    	LEA     (#$0020,A4), A4		;
0004A0 51CF FFF4            	DBRA    D7, #$FFF4			;
0004A4 4E75                 	RTS     					;
0004A6 526C         0002    	ADDQ.W  #$1, (#$0002,A4)			;
0004AA 302C 0002            	MOVE.W  (#$0002,A4),D0 		;
0004AE B06C         0004    	CMP.W   (#$0004,A4), D0		;
0004B2 6604                 	BNE     #$0004				;
0004B4 6100 01B8            	BRS     #$01B8				;
0004B8 082C 0006    0001    	BTST    #$06, (#$0001,A4)			;
0004BE 66E4                 	BNE     #$FFE4				;
0004C0 7000                 	MOVEQ   #$00, D0			;
0004C2 102C 0013            	MOVE.B  (#$0013,A4),D0 		;
0004C6 6702                 	BEQ     #$0002				;
0004C8 6172                 	BRS     #$0072				;
0004CA 0814 0005            	BTST    #$05, (A4)			;
0004CE 6600 014A            	BNE     #$014A				;
0004D2 7000                 	MOVEQ   #$00, D0			;
0004D4 102C 000B            	MOVE.B  (#$000B,A4),D0 		;
0004D8 6704                 	BEQ     #$0004				;
0004DA 6100 00EA            	BRS     #$00EA				;
0004DE 0C2C FFFF    0014    	CMPI.B  #$FFFF, (#$0014,A4)			;
0004E4 660C                 	BNE     #$000C				;
0004E6 7007                 	MOVEQ   #$07, D0			;
0004E8 C02C         0001    	AND.B   D0, (#$0001,A4)		;
0004EC 7208                 	MOVEQ   #$08, D1			;
0004EE 6000 09D6            	BRA     #$09D6				;
0004F2 0814 0001            	BTST    #$01, (A4)			;
0004F6 661E                 	BNE     #$001E				;
0004F8 7207                 	MOVEQ   #$07, D1			;
0004FA C22C         0001    	AND.B   D1, (#$0001,A4)		;
0004FE D23C         0030    	ADD.B   D1, #$00000030		;
000502 7000                 	MOVEQ   #$00, D0			;
000504 4A2C         000B    	TST.B   (#$000B,A4)			;
000508 6704                 	BEQ     #$0004				;
00050A 102C 0015            	MOVE.B  (#$0015,A4),D0 		;
00050E 6100 09B6            	BRS     #$09B6				;
000512 5101                 	SUBQ.B  #$0, D1			;
000514 6002                 	BRA     #$0002				;
000516 720F                 	MOVEQ   #$0F, D1			;
000518 102C 0014            	MOVE.B  (#$0014,A4),D0 		;
00051C 6100 09A8            	BRS     #$09A8				;
000520 4A6C         0002    	TST.W   (#$0002,A4)			;
000524 6600 FF7E            	BNE     #$FF7E				;
000528 7007                 	MOVEQ   #$07, D0			;
00052A C02C         0001    	AND.B   D0, (#$0001,A4)		;
00052E 7208                 	MOVEQ   #$08, D1			;
000530 6100 0994            	BRS     #$0994				;
000534 803C         0078    	OR.B    D0, #$00000078		;
000538 6000 098C            	BRA     #$098C				;
00053C 6100 09C8            	BRS     #$09C8				;
000540 6004                 	BRA     #$0004				;
000542 422C         000F    	CLR     (#$000F,A4)		;
000546 7000                 	MOVEQ   #$00, D0			;
000548 102C 000F            	MOVE.B  (#$000F,A4),D0 		;
00054C 7200                 	MOVEQ   #$00, D1			;
00054E 1230 0000            	MOVE.B  (#$00,A0,D0),D1 		;
000552 B23C         00FD    	CMP.B   #$000000FD, D1		;
000556 67EA                 	BEQ     #$FFEA				;
000558 B23C         00FE    	CMP.B   #$000000FE, D1		;
00055C 6606                 	BNE     #$0006				;
00055E 532C         000F    	SUBQ.B  #$1, (#$000F,A4)			;
000562 60E2                 	BRA     #$FFE2				;
000564 B23C         00FC    	CMP.B   #$000000FC, D1		;
000568 661A                 	BNE     #$001A				;
00056A 7400                 	MOVEQ   #$00, D2			;
00056C 1F30 0001            	MOVE.B  (#$01,A0,D0),-(A7) 		;
000570 341F                 	MOVE.W  (A7)+,D2 		;
000572 1430 0002            	MOVE.B  (#$02,A0,D0),D2 		;
000576 D4BC         00002278	ADD.L   D2, #$00002278		;
00057C 9488                 	SUB.L   D2, A0		;
00057E 1942         000F    	MOVE.B  D2,(#$000F,A4) 		;
000582 60C2                 	BRA     #$FFC2				;
000584 522C         000F    	ADDQ.B  #$1, (#$000F,A4)			;
000588 1601                 	MOVE.B  D1,D3 		;
00058A 7207                 	MOVEQ   #$07, D1			;
00058C C22C         0001    	AND.B   D1, (#$0001,A4)		;
000590 D23C         0078    	ADD.B   D1, #$00000078		;
000594 102C 000D            	MOVE.B  (#$000D,A4),D0 		;
000598 1400                 	MOVE.B  D0,D2 		;
00059A C43C         00F9    	AND.B   D2, #$000000F9		;
00059E 0800 0001            	BTST    #$00000001, D0			;
0005A2 6704                 	BEQ     #$0004				;
0005A4 08C2 0002            	BSET    #$00000002, D2			;
0005A8 0800 0002            	BTST    #$00000002, D0			;
0005AC 6704                 	BEQ     #$0004				;
0005AE 08C2 0001            	BSET    #$00000001, D2			;
0005B2 7603                 	MOVEQ   #$03, D3			;
0005B4 E24A                 	LSR.W   #1, D2		;
0005B6 6406                 	BCC     #$0006				;
0005B8 1003                 	MOVE.B  D3,D0 		;
0005BA 6100 090A            	BRS     #$090A				;
0005BE 5101                 	SUBQ.B  #$0, D1			;
0005C0 51CB FFF2            	DBRA    D3, #$FFF2			;
0005C4 4E75                 	RTS     					;
0005C6 6100 0936            	BRS     #$0936				;
0005CA 6004                 	BRA     #$0004				;
0005CC 422C         0010    	CLR     (#$0010,A4)		;
0005D0 7000                 	MOVEQ   #$00, D0			;
0005D2 102C 0010            	MOVE.B  (#$0010,A4),D0 		;
0005D6 7200                 	MOVEQ   #$00, D1			;
0005D8 1230 0000            	MOVE.B  (#$00,A0,D0),D1 		;
0005DC B23C         00FD    	CMP.B   #$000000FD, D1		;
0005E0 67EA                 	BEQ     #$FFEA				;
0005E2 B23C         00FE    	CMP.B   #$000000FE, D1		;
0005E6 6606                 	BNE     #$0006				;
0005E8 532C         0010    	SUBQ.B  #$1, (#$0010,A4)			;
0005EC 60E2                 	BRA     #$FFE2				;
0005EE B23C         00FC    	CMP.B   #$000000FC, D1		;
0005F2 661A                 	BNE     #$001A				;
0005F4 7400                 	MOVEQ   #$00, D2			;
0005F6 1F30 0001            	MOVE.B  (#$01,A0,D0),-(A7) 		;
0005FA 341F                 	MOVE.W  (A7)+,D2 		;
0005FC 1430 0002            	MOVE.B  (#$02,A0,D0),D2 		;
000600 D4BC         00002278	ADD.L   D2, #$00002278		;
000606 9488                 	SUB.L   D2, A0		;
000608 1942         0010    	MOVE.B  D2,(#$0010,A4) 		;
00060C 60C2                 	BRA     #$FFC2				;
00060E 522C         0010    	ADDQ.B  #$1, (#$0010,A4)			;
000612 E509                 	LSL.B   #2, D1		;
000614 1941         0015    	MOVE.B  D1,(#$0015,A4) 		;
000618 4E75                 	RTS     					;
00061A 302C 0014            	MOVE.W  (#$0014,A4),D0 		;
00061E 5340                 	SUBQ.W  #$1, D0			;
000620 67F6                 	BEQ     #$FFF6				;
000622 3940         0014    	MOVE.W  D0,(#$0014,A4) 		;
000626 322C 0016            	MOVE.W  (#$0016,A4),D1 		;
00062A 9240                 	SUB.W   D0, D1		;
00062C C3EC         0002    	MULS    (#$0002,A4), D1		;
000630 83EC         0004    	DIVS    (#$0004,A4), D1		;
000634 D041                 	ADD.W   D1, D0		;
000636 3400                 	MOVE.W  D0,D2 		;
000638 E648                 	LSR.W   #3, D0		;
00063A B03C         0060    	CMP.B   #$00000060, D0		;
00063E 6602                 	BNE     #$0002				;
000640 5300                 	SUBQ.B  #$1, D0			;
000642 41F9         00001F98	LEA     $00001F98.L, A0		;
000648 41F0         0000    	LEA     (#$00,A0,D0), A0		;
00064C 7207                 	MOVEQ   #$07, D1			;
00064E C22C         0001    	AND.B   D1, (#$0001,A4)		;
000652 D23C         0028    	ADD.B   D1, #$00000028		;
000656 1030 0000            	MOVE.B  (#$00,A0,D0),D0 		;
00065A 6100 086A            	BRS     #$086A				;
00065E 7007                 	MOVEQ   #$07, D0			;
000660 C002                 	AND.B   D2, D0		;
000662 E418                 	ROR.B   #2, D0		;
000664 5001                 	ADDQ.B  #$0, D1			;
000666 6100 085E            	BRS     #$085E				;
00066A 6000 FEB4            	BRA     #$FEB4				;
00066E 7000                 	MOVEQ   #$00, D0			;
000670 302C 0006            	MOVE.W  (#$0006,A4),D0 		;
000674 45F9         00002278	LEA     $00002278.L, A2		;
00067A D5C0                 	ADDA.L  D0, A2		;
00067C 7000                 	MOVEQ   #$00, D0			;
00067E 101A                 	MOVE.B  (A2)+,D0 		;
000680 6B00 00C4            	BMI     #$00C4				;
000684 0814 0005            	BTST    #$05, (A4)			;
000688 6600 008C            	BNE     #$008C				;
00068C 0814 0001            	BTST    #$01, (A4)			;
000690 666A                 	BNE     #$006A				;
000692 4A00                 	TST.B   D0			;
000694 6610                 	BNE     #$0010				;
000696 082C 0006    0001    	BTST    #$06, (#$0001,A4)			;
00069C 661A                 	BNE     #$001A				;
00069E 197C FFFF    0014    	MOVE.B  #$0000FFFF,(#$0014,A4) 		;
0006A4 6012                 	BRA     #$0012				;
0006A6 5340                 	SUBQ.W  #$1, D0			;
0006A8 D02C         0009    	ADD.B   D0, (#$0009,A4)		;
0006AC 41F9         00001F98	LEA     $00001F98.L, A0		;
0006B2 1970 0000    0014    	MOVE.B  (#$00,A0,D0),(#$0014,A4) 		;
0006B8 7000                 	MOVEQ   #$00, D0			;
0006BA 101A                 	MOVE.B  (A2)+,D0 		;
0006BC 082C 0001    000D    	BTST    #$01, (#$000D,A4)			;
0006C2 660A                 	BNE     #$000A				;
0006C4 7200                 	MOVEQ   #$00, D1			;
0006C6 122C 0008            	MOVE.B  (#$0008,A4),D1 		;
0006CA C2C0                 	MULU    D0, D1		;
0006CC 600E                 	BRA     #$000E				;
0006CE 3200                 	MOVE.W  D0,D1 		;
0006D0 08AC 0000    000D    	BCLR    #$00, (#$000D,A4)			;
0006D6 6704                 	BEQ     #$0004				;
0006D8 E149                 	LSL.W   #0, D1		;
0006DA 121A                 	MOVE.B  (A2)+,D1 		;
0006DC 3941         0004    	MOVE.W  D1,(#$0004,A4) 		;
0006E0 200A                 	MOVE.L  A2,D0 		;
0006E2 90BC         00002278	SUB.L   D0, #$00002278		;
0006E8 3940         0006    	MOVE.W  D0,(#$0006,A4) 		;
0006EC 7000                 	MOVEQ   #$00, D0			;
0006EE 1940         000F    	MOVE.B  D0,(#$000F,A4) 		;
0006F2 1940         0010    	MOVE.B  D0,(#$0010,A4) 		;
0006F6 3940         0002    	MOVE.W  D0,(#$0002,A4) 		;
0006FA 4E75                 	RTS     					;
0006FC 4A00                 	TST.B   D0			;
0006FE 6710                 	BEQ     #$0010				;
000700 5300                 	SUBQ.B  #$1, D0			;
000702 D02C         0009    	ADD.B   D0, (#$0009,A4)		;
000706 803C         0080    	OR.B    D0, #$00000080		;
00070A 1940         0014    	MOVE.B  D0,(#$0014,A4) 		;
00070E 60A8                 	BRA     #$FFA8				;
000710 50EC         0014    	ST      (#$0014,A4)			;
000714 60A2                 	BRA     #$FFA2				;
000716 D02C         0009    	ADD.B   D0, (#$0009,A4)		;
00071A 671A                 	BEQ     #$001A				;
00071C 5300                 	SUBQ.B  #$1, D0			;
00071E E748                 	LSL.W   #3, D0		;
000720 3940         0014    	MOVE.W  D0,(#$0014,A4) 		;
000724 7000                 	MOVEQ   #$00, D0			;
000726 101A                 	MOVE.B  (A2)+,D0 		;
000728 5300                 	SUBQ.B  #$1, D0			;
00072A D02C         0009    	ADD.B   D0, (#$0009,A4)		;
00072E E748                 	LSL.W   #3, D0		;
000730 1940         0016    	MOVE.B  D0,(#$0016,A4) 		;
000734 6082                 	BRA     #$FF82				;
000736 70FF                 	MOVEQ   #$FF, D0			;
000738 3940         0014    	MOVE.W  D0,(#$0014,A4) 		;
00073C 3940         0016    	MOVE.W  D0,(#$0016,A4) 		;
000740 524A                 	ADDQ.W  #$1, A2			;
000742 6000 FF74            	BRA     #$FF74				;
000746 B03C         00BF    	CMP.B   #$000000BF, D0		;
00074A 6400 0268            	BCC     #$0268				;
00074E 487A         FF2C    	PEA     (#$FF2C,PC)		;
000752 C07C         003F    	AND.W   D0, #$0000003F		;
000756 D040                 	ADD.W   D0, D0		;
000758 D040                 	ADD.W   D0, D0		;
00075A 4EFB         0002    	JMP     (#$02,PC,D0)			;
00075E 6000 0140            	BRA     #$0140				;
000762 6000 0070            	BRA     #$0070				;
000766 6000 0072            	BRA     #$0072				;
00076A 6000 0134            	BRA     #$0134				;
00076E 6000 017A            	BRA     #$017A				;
000772 6000 0092            	BRA     #$0092				;
000776 6000 00A2            	BRA     #$00A2				;
00077A 6000 00A8            	BRA     #$00A8				;
00077E 6000 00AA            	BRA     #$00AA				;
000782 6000 00CC            	BRA     #$00CC				;
000786 6000 00E0            	BRA     #$00E0				;
00078A 6000 00EE            	BRA     #$00EE				;
00078E 6000 00F2            	BRA     #$00F2				;
000792 6000 0108            	BRA     #$0108				;
000796 6000 010A            	BRA     #$010A				;
00079A 6000 010C            	BRA     #$010C				;
00079E 6000 010E            	BRA     #$010E				;
0007A2 6000 019A            	BRA     #$019A				;
0007A6 6000 0064            	BRA     #$0064				;
0007AA 6000 001A            	BRA     #$001A				;
0007AE 6000 01A8            	BRA     #$01A8				;
0007B2 6000 01AC            	BRA     #$01AC				;
0007B6 6000 01B0            	BRA     #$01B0				;
0007BA 6000 01B0            	BRA     #$01B0				;
0007BE 6000 01B0            	BRA     #$01B0				;
0007C2 6000 00F0            	BRA     #$00F0				;
0007C6 082C 0006    0001    	BTST    #$06, (#$0001,A4)			;
0007CC 6704                 	BEQ     #$0004				;
0007CE 195A         0016    	MOVE.B  (A2)+,(#$0016,A4) 		;
0007D2 4E75                 	RTS     					;
0007D4 195A         0008    	MOVE.B  (A2)+,(#$0008,A4) 		;
0007D8 4E75                 	RTS     					;
0007DA 101A                 	MOVE.B  (A2)+,D0 		;
0007DC 082C 0006    0001    	BTST    #$06, (#$0001,A4)			;
0007E2 6606                 	BNE     #$0006				;
0007E4 1940         000D    	MOVE.B  D0,(#$000D,A4) 		;
0007E8 4E75                 	RTS     					;
0007EA B03C         0040    	CMP.B   #$00000040, D0		;
0007EE 6502                 	BCS     #$0002				;
0007F0 7000                 	MOVEQ   #$00, D0			;
0007F2 1940         0011    	MOVE.B  D0,(#$0011,A4) 		;
0007F6 101A                 	MOVE.B  (A2)+,D0 		;
0007F8 B03C         0040    	CMP.B   #$00000040, D0		;
0007FC 6502                 	BCS     #$0002				;
0007FE 7000                 	MOVEQ   #$00, D0			;
000800 1940         0012    	MOVE.B  D0,(#$0012,A4) 		;
000804 4E75                 	RTS     					;
000806 08D4 0001            	BSET    #$01, (A4)			;
00080A 4E75                 	RTS     					;
00080C 720F                 	MOVEQ   #$0F, D1			;
00080E 7000                 	MOVEQ   #$00, D0			;
000810 6100 06B8            	BRS     #$06B8				;
000814 0894 0001            	BCLR    #$01, (A4)			;
000818 4E75                 	RTS     					;
00081A 195A         0013    	MOVE.B  (A2)+,(#$0013,A4) 		;
00081E 195A         000D    	MOVE.B  (A2)+,(#$000D,A4) 		;
000822 4E75                 	RTS     					;
000824 195A         000B    	MOVE.B  (A2)+,(#$000B,A4) 		;
000828 4E75                 	RTS     					;
00082A 263C 00002278        	MOVE.L  #$00002278,D3 		;
000830 7000                 	MOVEQ   #$00, D0			;
000832 1F1A                 	MOVE.B  (A2)+,-(A7) 		;
000834 301F                 	MOVE.W  (A7)+,D0 		;
000836 101A                 	MOVE.B  (A2)+,D0 		;
000838 D083                 	ADD.L   D3, D0		;
00083A 7200                 	MOVEQ   #$00, D1			;
00083C 552C         000A    	SUBQ.B  #$2, (#$000A,A4)			;
000840 122C 000A            	MOVE.B  (#$000A,A4),D1 		;
000844 240A                 	MOVE.L  A2,D2 		;
000846 9483                 	SUB.L   D3, D2		;
000848 3982         1000    	MOVE.W  D2,(#$00,A4,D1) 		;
00084C 2440                 	MOVE.L  D0,A2 		;
00084E 4E75                 	RTS     					;
000850 7000                 	MOVEQ   #$00, D0			;
000852 102C 000A            	MOVE.B  (#$000A,A4),D0 		;
000856 3034 0000            	MOVE.W  (#$00,A4,D0),D0 		;
00085A 542C         000A    	ADDQ.B  #$2, (#$000A,A4)			;
00085E D0BC         00002278	ADD.L   D0, #$00002278		;
000864 2440                 	MOVE.L  D0,A2 		;
000866 4E75                 	RTS     					;
000868 7000                 	MOVEQ   #$00, D0			;
00086A 1F1A                 	MOVE.B  (A2)+,-(A7) 		;
00086C 301F                 	MOVE.W  (A7)+,D0 		;
00086E 1012                 	MOVE.B  (A2),D0 		;
000870 45F9         00002278	LEA     $00002278.L, A2		;
000876 D5C0                 	ADDA.L  D0, A2		;
000878 4E75                 	RTS     					;
00087A 101A                 	MOVE.B  (A2)+,D0 		;
00087C D12C         0009    	ADD.B   D0, (#$0009,A4)		;
000880 4E75                 	RTS     					;
000882 7000                 	MOVEQ   #$00, D0			;
000884 101A                 	MOVE.B  (A2)+,D0 		;
000886 1234 0018            	MOVE.B  (#$18,A4,D0),D1 		;
00088A 6604                 	BNE     #$0004				;
00088C 1992         0018    	MOVE.B  (A2),(#$18,A4,D0) 		;
000890 524A                 	ADDQ.W  #$1, A2			;
000892 5334         0018    	SUBQ.B  #$1, (#$18,A4,D0)			;
000896 66D0                 	BNE     #$FFD0				;
000898 544A                 	ADDQ.W  #$2, A2			;
00089A 4E75                 	RTS     					;
00089C 08D4 0005            	BSET    #$05, (A4)			;
0008A0 4E75                 	RTS     					;
0008A2 0894 0005            	BCLR    #$05, (A4)			;
0008A6 4E75                 	RTS     					;
0008A8 08D4 0003            	BSET    #$03, (A4)			;
0008AC 4E75                 	RTS     					;
0008AE 0894 0003            	BCLR    #$03, (A4)			;
0008B2 4E75                 	RTS     					;
0008B4 08AE 0001    0008    	BCLR    #$01, (#$0008,A6)			;
0008BA 41ED         FFC0    	LEA     (#$FFC0,A5), A0		;
0008BE 43EE         088A    	LEA     (#$088A,A6), A1		;
0008C2 20D9                 	MOVE.L  (A1)+,(A0)+ 		;
0008C4 20D9                 	MOVE.L  (A1)+,(A0)+ 		;
0008C6 41ED         0050    	LEA     (#$0050,A5), A0		;
0008CA 43EE         0892    	LEA     (#$0892,A6), A1		;
0008CE 20D9                 	MOVE.L  (A1)+,(A0)+ 		;
0008D0 20D9                 	MOVE.L  (A1)+,(A0)+ 		;
0008D2 41ED         FFD0    	LEA     (#$FFD0,A5), A0		;
0008D6 43EE         089A    	LEA     (#$089A,A6), A1		;
0008DA 20D9                 	MOVE.L  (A1)+,(A0)+ 		;
0008DC 20D9                 	MOVE.L  (A1)+,(A0)+ 		;
0008DE 41ED         0050    	LEA     (#$0050,A5), A0		;
0008E2 43EE         08A2    	LEA     (#$08A2,A6), A1		;
0008E6 20D9                 	MOVE.L  (A1)+,(A0)+ 		;
0008E8 20D9                 	MOVE.L  (A1)+,(A0)+ 		;
0008EA 264C                 	MOVE.L  A4,A3 		;
0008EC 7407                 	MOVEQ   #$07, D2			;
0008EE C42B         0001    	AND.B   D2, (#$0001,A3)		;
0008F2 41F9         00002059	LEA     $00002059.L, A0		;
0008F8 6100 05D2            	BRS     #$05D2				;
0008FC 1002                 	MOVE.B  D2,D0 		;
0008FE 7208                 	MOVEQ   #$08, D1			;
000900 6100 05C8            	BRS     #$05C8				;
000904 7000                 	MOVEQ   #$00, D0			;
000906 720F                 	MOVEQ   #$0F, D1			;
000908 6100 05C0            	BRS     #$05C0				;
00090C 4213                 	CLR     (A3)		;
00090E B7FC         000002FF	CMPA.L  #$000002FF, A3		;
000914 6424                 	BCC     #$0024				;
000916 99FC         000002C0	SUBA.L  #$000002C0, A4		;
00091C 4A14                 	TST.B   (A4)			;
00091E 6A1A                 	BPL     #$001A				;
000920 0894 0002            	BCLR    #$02, (A4)			;
000924 7000                 	MOVEQ   #$00, D0			;
000926 102C 000C            	MOVE.B  (#$000C,A4),D0 		;
00092A 670E                 	BEQ     #$000E				;
00092C 6100 05C8            	BRS     #$05C8				;
000930 7407                 	MOVEQ   #$07, D2			;
000932 C42C         0001    	AND.B   D2, (#$0001,A4)		;
000936 6100 0594            	BRS     #$0594				;
00093A 504F                 	ADDQ.W  #$0, A7			;
00093C 4E75                 	RTS     					;
00093E 7000                 	MOVEQ   #$00, D0			;
000940 101A                 	MOVE.B  (A2)+,D0 		;
000942 1940         000C    	MOVE.B  D0,(#$000C,A4) 		;
000946 670E                 	BEQ     #$000E				;
000948 6100 05AC            	BRS     #$05AC				;
00094C 7407                 	MOVEQ   #$07, D2			;
00094E C42C         0001    	AND.B   D2, (#$0001,A4)		;
000952 6100 0578            	BRS     #$0578				;
000956 4E75                 	RTS     					;
000958 08EC 0001    000D    	BSET    #$01, (#$000D,A4)			;
00095E 4E75                 	RTS     					;
000960 08EC 0000    000D    	BSET    #$00, (#$000D,A4)			;
000966 4E75                 	RTS     					;
000968 7480                 	MOVEQ   #$80, D2			;
00096A 6006                 	BRA     #$0006				;
00096C 7440                 	MOVEQ   #$40, D2			;
00096E 6002                 	BRA     #$0002				;
000970 74C0                 	MOVEQ   #$C0, D2			;
000972 7000                 	MOVEQ   #$00, D0			;
000974 102C 000C            	MOVE.B  (#$000C,A4),D0 		;
000978 6100 057C            	BRS     #$057C				;
00097C 7207                 	MOVEQ   #$07, D1			;
00097E C22C         0001    	AND.B   D1, (#$0001,A4)		;
000982 D23C         0020    	ADD.B   D1, #$00000020		;
000986 703F                 	MOVEQ   #$3F, D0			;
000988 C028         0033    	AND.B   D0, (#$0033,A0)		;
00098C 8002                 	OR.B    D2, D0		;
00098E 6000 0536            	BRA     #$0536				;
000992 41EE         0020    	LEA     (#$0020,A6), A0		;
000996 303C 00DF            	MOVE.W  #$000000DF,D0 		;
00099A 7200                 	MOVEQ   #$00, D1			;
00099C 30C1                 	MOVE.W  D1,(A0)+ 		;
00099E 51C8 FFFC            	DBRA    D0, #$FFFC			;
0009A2 49F9         00000452	LEA     $00000452.L, A4		;
0009A8 7400                 	MOVEQ   #$00, D2			;
0009AA 41F9         00001FF8	LEA     $00001FF8.L, A0		;
0009B0 6000 051A            	BRA     #$051A				;
0009B4 4A00                 	TST.B   D0			;
0009B6 6700 FD00            	BEQ     #$FD00				;
0009BA 487A         FCFC    	PEA     (#$FCFC,PC)		;
0009BE B03C         00D0    	CMP.B   #$000000D0, D0		;
0009C2 6400 00AE            	BCC     #$00AE				;
0009C6 903C         00C0    	SUB.B   D0, #$000000C0		;
0009CA 48E7 0020            	MOVEM.L  20, -(A7)		;
0009CE 45FA         0072    	LEA     (#$0072,PC), A2		;
0009D2 B03C         0002    	CMP.B   #$00000002, D0		;
0009D6 660E                 	BNE     #$000E				;
0009D8 4A2E         03E5    	TST.B   (#$03E5,A6)			;
0009DC 6702                 	BEQ     #$0002				;
0009DE 7004                 	MOVEQ   #$04, D0			;
0009E0 1D7C 0010    03E5    	MOVE.B  #$00000010,(#$03E5,A6) 		;
0009E6 E748                 	LSL.W   #3, D0		;
0009E8 D4C0                 	ADDA.W  D0, A2		;
0009EA 322A 0006            	MOVE.W  (#$0006,A2),D1 		;
0009EE 41F9         00100000	LEA     $00100000.L, A0		;
0009F4 43EE         03E6    	LEA     (#$03E6,A6), A1		;
0009F8 D0C1                 	ADDA.W  D1, A0		;
0009FA D2C1                 	ADDA.W  D1, A1		;
0009FC 3211                 	MOVE.W  (A1),D1 		;
0009FE C27C         E7FF    	AND.W   D1, #$0000E7FF		;
000A02 827C         1000    	OR.W    D1, #$00001000		;
000A06 3081                 	MOVE.W  D1,(A0) 		;
000A08 221A                 	MOVE.L  (A2)+,D1 		;
000A0A 82BC         08100000	OR.L    D1, #$08100000		;
000A10 22C1                 	MOVE.L  D1,(A1)+ 		;
000A12 7000                 	MOVEQ   #$00, D0			;
000A14 301A                 	MOVE.W  (A2)+,D0 		;
000A16 22C0                 	MOVE.L  D0,(A1)+ 		;
000A18 22FC 003F0000        	MOVE.L  #$003F0000,(A1)+ 		;
000A1E 7000                 	MOVEQ   #$00, D0			;
000A20 103C 0006            	MOVE.B  #$00000006,D0 		;
000A24 D039         00001455	ADD.B   D0, $00001455.L		;
000A2A 4840                 	SWAP    D0		;
000A2C 22C0                 	MOVE.L  D0,(A1)+ 		;
000A2E 4299                 	CLR     (A1)+		;
000A30 203C 0000E000        	MOVE.L  #$0000E000,D0 		;
000A36 1029 0003            	MOVE.B  (#$0003,A1),D0 		;
000A3A 22C0                 	MOVE.L  D0,(A1)+ 		;
000A3C 4CDF 0400            	MOVEM.L  (A7)+, 400		;
000A40 4E75                 	RTS     					;
000A42 0003 3254            	ORI.B   #$3254, D3 			;
000A46 7E54                 	MOVEQ   #$54, D7			;
000A48 0200 0003            	ANDI.B  #$0003, D0			;
000A4C B0A8         1617    	CMP.L   (#$1617,A0), D0		;
000A50 0240 0003            	ANDI.W  #$0003, D0			;
000A54 C6C0                 	MULU    D0, D3		;
000A56 82B2         0280    	OR.L    (#$80,A2,D0), D1		;
000A5A 0004 4972            	ORI.B   #$4972, D4 			;
000A5E FFFE                 	???    		;
000A60 02C0 0005BC70        	ANDI.?  #$0005BC70, D0			;
000A66 830C                 	SBCD    -(A4), -(A1)		;
000A68 0280 00063F7C        	ANDI.L  #$00063F7C, D0			;
000A6E 9852                 	SUB.W   (A2), D4		;
000A70 0200 903C            	ANDI.B  #$903C, D0			;
000A74 00D0 E54841FB        	ORI.?   #$E54841FB, (A0) 			;
000A7A 0016 43EC            	ORI.B   #$43EC, (A6) 			;
000A7E 0013 12D8            	ORI.B   #$12D8, (A3) 			;
000A82 12D8                 	MOVE.B  (A0)+,(A1)+ 		;
000A84 12D8                 	MOVE.B  (A0)+,(A1)+ 		;
000A86 5249                 	ADDQ.W  #$1, A1			;
000A88 12D8                 	MOVE.B  (A0)+,(A1)+ 		;
000A8A 7000                 	MOVEQ   #$00, D0			;
000A8C 6000 04F8            	BRA     #$04F8				;
000A90 0900                 	BTST    D4, D0 		;
000A92 1F1A                 	MOVE.B  (A2)+,-(A7) 		;
000A94 8E00                 	OR.B    D0, D7		;
000A96 170E                 	MOVE.B  A6,-(A3) 		;
000A98 0000 021E            	ORI.B   #$021E, D0 			;
000A9C 3C00                 	MOVE.W  D0,D6 		;
000A9E 5B1A                 	SUBQ.B  #$5, (A2)+			;
000AA0 A000                 	???    		;
000AA2 3F0A                 	MOVE.W  A2,-(A7) 		;
000AA4 0331         081E    	BTST    D1, (#$F8,A1,D0) 		;
000AA8 2000                 	MOVE.L  D0,D0 		;
000AAA 3B1A                 	MOVE.W  (A2)+,-(A5) 		;
000AAC 6400 6C1E            	BCC     #$6C1E				;
000AB0 873F         0D0E    	OR.B    D3, #$00000D0E		;
000AB4 6D0D                 	BLT     #$000D				;
000AB6 731E                 	MOVEQ   #$1E, D1			;
000AB8 5C31         631A    	ADDQ.B  #$6, (#$1A,A1,D6)			;
000ABC C000                 	AND.B   D0, D0		;
000ABE 7F04                 	MOVEQ   #$04, D7			;
000AC0 6700 7C02            	BEQ     #$7C02				;
000AC4 8000                 	OR.B    D0, D0		;
000AC6 2512                 	MOVE.L  (A2),-(A2) 		;
000AC8 5600                 	ADDQ.B  #$3, D0			;
000ACA 6602                 	BNE     #$0002				;
000ACC 7400                 	MOVEQ   #$00, D2			;
000ACE 7F12                 	MOVEQ   #$12, D7			;
000AD0 A600                 	???    		;
000AD2 7F16                 	MOVEQ   #$16, D7			;
000AD4 D600                 	ADD.B   D0, D3		;
000AD6 7F16                 	MOVEQ   #$16, D7			;
000AD8 4A2E         03E5    	TST.B   (#$03E5,A6)			;
000ADC 6704                 	BEQ     #$0004				;
000ADE 532E         03E5    	SUBQ.B  #$1, (#$03E5,A6)			;
000AE2 7000                 	MOVEQ   #$00, D0			;
000AE4 1016                 	MOVE.B  (A6),D0 		;
000AE6 6728                 	BEQ     #$0028				;
000AE8 B03C         FFFF    	CMP.B   #$0000FFFF, D0		;
000AEC 6722                 	BEQ     #$0022				;
000AEE B03C         0080    	CMP.B   #$00000080, D0		;
000AF2 671A                 	BEQ     #$001A				;
000AF4 6500 0322            	BCS     #$0322				;
000AF8 B03C         00A6    	CMP.B   #$000000A6, D0		;
000AFC 6400 034C            	BCC     #$034C				;
000B00 903C         0081    	SUB.B   D0, #$00000081		;
000B04 E548                 	LSL.W   #2, D0		;
000B06 1CBC 0080            	MOVE.B  #$00000080,(A6) 		;
000B0A 4EFB         0010    	JMP     (#$10,PC,D0)			;
000B0E 4E75                 	RTS     					;
000B10 6100 FE80            	BRS     #$FE80				;
000B14 1CBC 0080            	MOVE.B  #$00000080,(A6) 		;
000B18 6000 019A            	BRA     #$019A				;
000B1C 6000 0092            	BRA     #$0092				;
000B20 6000 00A6            	BRA     #$00A6				;
000B24 6000 00BA            	BRA     #$00BA				;
000B28 6000 00B8            	BRA     #$00B8				;
000B2C 6000 00C4            	BRA     #$00C4				;
000B30 6000 00D8            	BRA     #$00D8				;
000B34 6000 00E4            	BRA     #$00E4				;
000B38 6000 00E0            	BRA     #$00E0				;
000B3C 6000 00DC            	BRA     #$00DC				;
000B40 6000 00DA            	BRA     #$00DA				;
000B44 6000 00E6            	BRA     #$00E6				;
000B48 6000 0104            	BRA     #$0104				;
000B4C 6000 0102            	BRA     #$0102				;
000B50 6000 010E            	BRA     #$010E				;
000B54 6000 012C            	BRA     #$012C				;
000B58 6000 0138            	BRA     #$0138				;
000B5C 6000 0144            	BRA     #$0144				;
000B60 6000 0142            	BRA     #$0142				;
000B64 6000 014E            	BRA     #$014E				;
000B68 6000 0194            	BRA     #$0194				;
000B6C 6000 01A0            	BRA     #$01A0				;
000B70 6000 01B2            	BRA     #$01B2				;
000B74 6000 01BE            	BRA     #$01BE				;
000B78 6000 01DC            	BRA     #$01DC				;
000B7C 6000 01E8            	BRA     #$01E8				;
000B80 6000 01F4            	BRA     #$01F4				;
000B84 6000 0204            	BRA     #$0204				;
000B88 6000 0214            	BRA     #$0214				;
000B8C 6000 0220            	BRA     #$0220				;
000B90 6000 0230            	BRA     #$0230				;
000B94 6000 0240            	BRA     #$0240				;
000B98 6000 024E            	BRA     #$024E				;
000B9C 6000 025A            	BRA     #$025A				;
000BA0 6000 025A            	BRA     #$025A				;
000BA4 6000 0286            	BRA     #$0286				;
000BA8 6000 0284            	BRA     #$0284				;
000BAC 6000 028E            	BRA     #$028E				;
000BB0 6100 FDE0            	BRS     #$FDE0				;
000BB4 08EE 0000    0008    	BSET    #$00, (#$0008,A6)			;
000BBA 7000                 	MOVEQ   #$00, D0			;
000BBC 41F9         00002278	LEA     $00002278.L, A0		;
000BC2 43EE         0020    	LEA     (#$0020,A6), A1		;
000BC6 4E75                 	RTS     					;
000BC8 6100 FDC8            	BRS     #$FDC8				;
000BCC 08EE 0000    0008    	BSET    #$00, (#$0008,A6)			;
000BD2 7001                 	MOVEQ   #$01, D0			;
000BD4 41F9         00002278	LEA     $00002278.L, A0		;
000BDA 43EE         0020    	LEA     (#$0020,A6), A1		;
000BDE 4E75                 	RTS     					;
000BE0 4E75                 	RTS     					;
000BE2 7003                 	MOVEQ   #$03, D0			;
000BE4 41F9         000022F4	LEA     $000022F4.L, A0		;
000BEA 43EE         03C0    	LEA     (#$03C0,A6), A1		;
000BEE 6000 029C            	BRA     #$029C				;
000BF2 6100 FD9E            	BRS     #$FD9E				;
000BF6 08EE 0000    0008    	BSET    #$00, (#$0008,A6)			;
000BFC 7004                 	MOVEQ   #$04, D0			;
000BFE 41F9         00002278	LEA     $00002278.L, A0		;
000C04 43EE         0020    	LEA     (#$0020,A6), A1		;
000C08 4E75                 	RTS     					;
000C0A 7005                 	MOVEQ   #$05, D0			;
000C0C 41F9         00002312	LEA     $00002312.L, A0		;
000C12 43EE         03C0    	LEA     (#$03C0,A6), A1		;
000C16 6000 0274            	BRA     #$0274				;
000C1A 4E75                 	RTS     					;
000C1C 7009                 	MOVEQ   #$09, D0			;
000C1E 41F9         000022B6	LEA     $000022B6.L, A0		;
000C24 43EE         0220    	LEA     (#$0220,A6), A1		;
000C28 6000 0262            	BRA     #$0262				;
000C2C 7000                 	MOVEQ   #$00, D0			;
000C2E 1D40         0220    	MOVE.B  D0,(#$0220,A6) 		;
000C32 1D40         0240    	MOVE.B  D0,(#$0240,A6) 		;
000C36 7001                 	MOVEQ   #$01, D0			;
000C38 1B40         002E    	MOVE.B  D0,(#$002E,A5) 		;
000C3C 1B40         003E    	MOVE.B  D0,(#$003E,A5) 		;
000C40 7205                 	MOVEQ   #$05, D1			;
000C42 6100 073E            	BRS     #$073E				;
000C46 7207                 	MOVEQ   #$07, D1			;
000C48 6100 0738            	BRS     #$0738				;
000C4C 4E75                 	RTS     					;
000C4E 4E75                 	RTS     					;
000C50 700C                 	MOVEQ   #$0C, D0			;
000C52 41F9         0000269C	LEA     $0000269C.L, A0		;
000C58 43EE         01E0    	LEA     (#$01E0,A6), A1		;
000C5C 6000 022E            	BRA     #$022E				;
000C60 7000                 	MOVEQ   #$00, D0			;
000C62 1D40         01E0    	MOVE.B  D0,(#$01E0,A6) 		;
000C66 1D40         0200    	MOVE.B  D0,(#$0200,A6) 		;
000C6A 7001                 	MOVEQ   #$01, D0			;
000C6C 1B40         000E    	MOVE.B  D0,(#$000E,A5) 		;
000C70 1B40         001E    	MOVE.B  D0,(#$001E,A5) 		;
000C74 7201                 	MOVEQ   #$01, D1			;
000C76 6100 070A            	BRS     #$070A				;
000C7A 7203                 	MOVEQ   #$03, D1			;
000C7C 6100 0704            	BRS     #$0704				;
000C80 4E75                 	RTS     					;
000C82 700E                 	MOVEQ   #$0E, D0			;
000C84 41F9         000023B2	LEA     $000023B2.L, A0		;
000C8A 43EE         0260    	LEA     (#$0260,A6), A1		;
000C8E 6000 01FC            	BRA     #$01FC				;
000C92 700F                 	MOVEQ   #$0F, D0			;
000C94 41F9         0000249E	LEA     $0000249E.L, A0		;
000C9A 43EE         0260    	LEA     (#$0260,A6), A1		;
000C9E 6000 01EC            	BRA     #$01EC				;
000CA2 4E75                 	RTS     					;
000CA4 7011                 	MOVEQ   #$11, D0			;
000CA6 41F9         00002428	LEA     $00002428.L, A0		;
000CAC 43EE         0260    	LEA     (#$0260,A6), A1		;
000CB0 6000 01DA            	BRA     #$01DA				;
000CB4 4A2E         03C0    	TST.B   (#$03C0,A6)			;
000CB8 6A18                 	BPL     #$0018				;
000CBA 422E         03C0    	CLR     (#$03C0,A6)		;
000CBE 7403                 	MOVEQ   #$03, D2			;
000CC0 41F9         00002050	LEA     $00002050.L, A0		;
000CC6 1218                 	MOVE.B  (A0)+,D1 		;
000CC8 1018                 	MOVE.B  (A0)+,D0 		;
000CCA 6100 01FE            	BRS     #$01FE				;
000CCE 51CA FFF6            	DBRA    D2, #$FFF6			;
000CD2 7000                 	MOVEQ   #$00, D0			;
000CD4 41EE         01E0    	LEA     (#$01E0,A6), A0		;
000CD8 323C 00EF            	MOVE.W  #$000000EF,D1 		;
000CDC 30C0                 	MOVE.W  D0,(A0)+ 		;
000CDE 51C9 FFFC            	DBRA    D1, #$FFFC			;
000CE2 7201                 	MOVEQ   #$01, D1			;
000CE4 7008                 	MOVEQ   #$08, D0			;
000CE6 7405                 	MOVEQ   #$05, D2			;
000CE8 08F5 0000    0006    	BSET    #$00, (#$06,A5,D0)			;
000CEE D07C         0010    	ADD.W   D0, #$00000010		;
000CF2 6100 068E            	BRS     #$068E				;
000CF6 5401                 	ADDQ.B  #$2, D1			;
000CF8 51CA FFEE            	DBRA    D2, #$FFEE			;
000CFC 4E75                 	RTS     					;
000CFE 7013                 	MOVEQ   #$13, D0			;
000D00 41F9         00002334	LEA     $00002334.L, A0		;
000D06 43EE         03C0    	LEA     (#$03C0,A6), A1		;
000D0A 6000 0180            	BRA     #$0180				;
000D0E 08AE 0000    0008    	BCLR    #$00, (#$0008,A6)			;
000D14 7014                 	MOVEQ   #$14, D0			;
000D16 41F9         00002352	LEA     $00002352.L, A0		;
000D1C 43EE         03C0    	LEA     (#$03C0,A6), A1		;
000D20 6000 016A            	BRA     #$016A				;
000D24 7015                 	MOVEQ   #$15, D0			;
000D26 41F9         00002500	LEA     $00002500.L, A0		;
000D2C 43EE         0260    	LEA     (#$0260,A6), A1		;
000D30 6000 015A            	BRA     #$015A				;
000D34 7000                 	MOVEQ   #$00, D0			;
000D36 1D40         0260    	MOVE.B  D0,(#$0260,A6) 		;
000D3A 1D40         0280    	MOVE.B  D0,(#$0280,A6) 		;
000D3E 7001                 	MOVEQ   #$01, D0			;
000D40 1B40         004E    	MOVE.B  D0,(#$004E,A5) 		;
000D44 1B40         005E    	MOVE.B  D0,(#$005E,A5) 		;
000D48 7209                 	MOVEQ   #$09, D1			;
000D4A 6100 0636            	BRS     #$0636				;
000D4E 720B                 	MOVEQ   #$0B, D1			;
000D50 6100 0630            	BRS     #$0630				;
000D54 4E75                 	RTS     					;
000D56 7000                 	MOVEQ   #$00, D0			;
000D58 41F9         00002370	LEA     $00002370.L, A0		;
000D5E 43EE         0260    	LEA     (#$0260,A6), A1		;
000D62 6000 0128            	BRA     #$0128				;
000D66 7018                 	MOVEQ   #$18, D0			;
000D68 41F9         0000238E	LEA     $0000238E.L, A0		;
000D6E 43EE         03C0    	LEA     (#$03C0,A6), A1		;
000D72 6000 0118            	BRA     #$0118				;
000D76 6100 FC1A            	BRS     #$FC1A				;
000D7A 7019                 	MOVEQ   #$19, D0			;
000D7C 41F9         000027C6	LEA     $000027C6.L, A0		;
000D82 43EE         0020    	LEA     (#$0020,A6), A1		;
000D86 6000 0104            	BRA     #$0104				;
000D8A 6100 FC06            	BRS     #$FC06				;
000D8E 701A                 	MOVEQ   #$1A, D0			;
000D90 41F9         0000289C	LEA     $0000289C.L, A0		;
000D96 43EE         0020    	LEA     (#$0020,A6), A1		;
000D9A 6000 00F0            	BRA     #$00F0				;
000D9E 701B                 	MOVEQ   #$1B, D0			;
000DA0 41F9         000026DA	LEA     $000026DA.L, A0		;
000DA6 43EE         01E0    	LEA     (#$01E0,A6), A1		;
000DAA 6000 00E0            	BRA     #$00E0				;
000DAE 6100 009C            	BRS     #$009C				;
000DB2 701C                 	MOVEQ   #$1C, D0			;
000DB4 41F9         00002718	LEA     $00002718.L, A0		;
000DBA 43EE         02A0    	LEA     (#$02A0,A6), A1		;
000DBE 6000 00CC            	BRA     #$00CC				;
000DC2 6100 0088            	BRS     #$0088				;
000DC6 701D                 	MOVEQ   #$1D, D0			;
000DC8 41F9         00002752	LEA     $00002752.L, A0		;
000DCE 43EE         02A0    	LEA     (#$02A0,A6), A1		;
000DD2 6000 00B8            	BRA     #$00B8				;
000DD6 6174                 	BRS     #$0074				;
000DD8 701E                 	MOVEQ   #$1E, D0			;
000DDA 41F9         0000278C	LEA     $0000278C.L, A0		;
000DE0 43EE         02A0    	LEA     (#$02A0,A6), A1		;
000DE4 6000 00A6            	BRA     #$00A6				;
000DE8 701F                 	MOVEQ   #$1F, D0			;
000DEA 41F9         00002278	LEA     $00002278.L, A0		;
000DF0 43EE         0220    	LEA     (#$0220,A6), A1		;
000DF4 6000 0096            	BRA     #$0096				;
000DF8 6000 FE32            	BRA     #$FE32				;
000DFC 41EE         0020    	LEA     (#$0020,A6), A0		;
000E00 323C 00EF            	MOVE.W  #$000000EF,D1 		;
000E04 7000                 	MOVEQ   #$00, D0			;
000E06 30C0                 	MOVE.W  D0,(A0)+ 		;
000E08 51C9 FFFC            	DBRA    D1, #$FFFC			;
000E0C 4A2E         03C0    	TST.B   (#$03C0,A6)			;
000E10 6B04                 	BMI     #$0004				;
000E12 741F                 	MOVEQ   #$1F, D2			;
000E14 6002                 	BRA     #$0002				;
000E16 741B                 	MOVEQ   #$1B, D2			;
000E18 41F9         00002018	LEA     $00002018.L, A0		;
000E1E 1218                 	MOVE.B  (A0)+,D1 		;
000E20 1018                 	MOVE.B  (A0)+,D0 		;
000E22 6100 00A6            	BRS     #$00A6				;
000E26 51CA FFF6            	DBRA    D2, #$FFF6			;
000E2A 4E75                 	RTS     					;
000E2C 4E75                 	RTS     					;
000E2E 7023                 	MOVEQ   #$23, D0			;
000E30 41F9         00002986	LEA     $00002986.L, A0		;
000E36 43EE         01E0    	LEA     (#$01E0,A6), A1		;
000E3A 6050                 	BRA     #$0050				;
000E3C 7024                 	MOVEQ   #$24, D0			;
000E3E 41F9         00002278	LEA     $00002278.L, A0		;
000E44 43EE         0020    	LEA     (#$0020,A6), A1		;
000E48 4E75                 	RTS     					;
000E4A 4E75                 	RTS     					;
000E4C 082E 0001    0008    	BTST    #$01, (#$0008,A6)			;
000E52 6636                 	BNE     #$0036				;
000E54 41ED         FFC0    	LEA     (#$FFC0,A5), A0		;
000E58 43EE         088A    	LEA     (#$088A,A6), A1		;
000E5C 22D8                 	MOVE.L  (A0)+,(A1)+ 		;
000E5E 22D8                 	MOVE.L  (A0)+,(A1)+ 		;
000E60 41ED         0050    	LEA     (#$0050,A5), A0		;
000E64 43EE         0892    	LEA     (#$0892,A6), A1		;
000E68 22D8                 	MOVE.L  (A0)+,(A1)+ 		;
000E6A 22D8                 	MOVE.L  (A0)+,(A1)+ 		;
000E6C 41ED         FFD0    	LEA     (#$FFD0,A5), A0		;
000E70 43EE         089A    	LEA     (#$089A,A6), A1		;
000E74 22D8                 	MOVE.L  (A0)+,(A1)+ 		;
000E76 22D8                 	MOVE.L  (A0)+,(A1)+ 		;
000E78 41ED         0050    	LEA     (#$0050,A5), A0		;
000E7C 43EE         08A2    	LEA     (#$08A2,A6), A1		;
000E80 22D8                 	MOVE.L  (A0)+,(A1)+ 		;
000E82 22D8                 	MOVE.L  (A0)+,(A1)+ 		;
000E84 08EE 0001    0008    	BSET    #$01, (#$0008,A6)			;
000E8A 4E75                 	RTS     					;
000E8C 1800                 	MOVE.B  D0,D4 		;
000E8E 7000                 	MOVEQ   #$00, D0			;
000E90 3018                 	MOVE.W  (A0)+,D0 		;
000E92 41F9         00002278	LEA     $00002278.L, A0		;
000E98 D1C0                 	ADDA.L  D0, A0		;
000E9A 3618                 	MOVE.W  (A0)+,D3 		;
000E9C 7200                 	MOVEQ   #$00, D1			;
000E9E 3218                 	MOVE.W  (A0)+,D1 		;
000EA0 45F9         00002278	LEA     $00002278.L, A2		;
000EA6 D5C1                 	ADDA.L  D1, A2		;
000EA8 22DA                 	MOVE.L  (A2)+,(A1)+ 		;
000EAA 22DA                 	MOVE.L  (A2)+,(A1)+ 		;
000EAC 22DA                 	MOVE.L  (A2)+,(A1)+ 		;
000EAE 32DA                 	MOVE.W  (A2)+,(A1)+ 		;
000EB0 12C4                 	MOVE.B  D4,(A1)+ 		;
000EB2 7010                 	MOVEQ   #$10, D0			;
000EB4 4219                 	CLR     (A1)+		;
000EB6 51C8 FFFC            	DBRA    D0, #$FFFC			;
000EBA 51CB FFE0            	DBRA    D3, #$FFE0			;
000EBE 4E75                 	RTS     					;
000EC0 7015                 	MOVEQ   #$15, D0			;
000EC2 7214                 	MOVEQ   #$14, D1			;
000EC4 6004                 	BRA     #$0004				;
000EC6 0814 0002            	BTST    #$02, (A4)			;
000ECA 4E75                 	RTS     					;
000ECC 1218                 	MOVE.B  (A0)+,D1 		;
000ECE B23C         0002    	CMP.B   #$00000002, D1		;
000ED2 6720                 	BEQ     #$0020				;
000ED4 B23C         0003    	CMP.B   #$00000003, D1		;
000ED8 6708                 	BEQ     #$0008				;
000EDA D202                 	ADD.B   D2, D1		;
000EDC 1018                 	MOVE.B  (A0)+,D0 		;
000EDE 61EA                 	BRS     #$FFEA				;
000EE0 60EA                 	BRA     #$FFEA				;
000EE2 7000                 	MOVEQ   #$00, D0			;
000EE4 1F18                 	MOVE.B  (A0)+,-(A7) 		;
000EE6 301F                 	MOVE.W  (A7)+,D0 		;
000EE8 1018                 	MOVE.B  (A0)+,D0 		;
000EEA D0BC         00002278	ADD.L   D0, #$00002278		;
000EF0 2040                 	MOVE.L  D0,A0 		;
000EF2 60D8                 	BRA     #$FFD8				;
000EF4 4E75                 	RTS     					;
000EF6 48E7 E040            	MOVEM.L  E040, -(A7)		;
000EFA 7406                 	MOVEQ   #$06, D2			;
000EFC 600E                 	BRA     #$000E				;
000EFE 48E7 E040            	MOVEM.L  E040, -(A7)		;
000F02 7404                 	MOVEQ   #$04, D2			;
000F04 6006                 	BRA     #$0006				;
000F06 48E7 E040            	MOVEM.L  E040, -(A7)		;
000F0A 7402                 	MOVEQ   #$02, D2			;
000F0C 43F9         00002278	LEA     $00002278.L, A1		;
000F12 7200                 	MOVEQ   #$00, D1			;
000F14 122C 000E            	MOVE.B  (#$000E,A4),D1 		;
000F18 D241                 	ADD.W   D1, D1		;
000F1A 323B 1020            	MOVE.W  (#$20,PC,D1),D1 		;
000F1E 41F1         1000    	LEA     (#$00,A1,D1), A0		;
000F22 3230 2000            	MOVE.W  (#$00,A0,D2),D1 		;
000F26 41F1         1000    	LEA     (#$00,A1,D1), A0		;
000F2A 5340                 	SUBQ.W  #$1, D0			;
000F2C D040                 	ADD.W   D0, D0		;
000F2E 3230 0000            	MOVE.W  (#$00,A0,D0),D1 		;
000F32 41F1         1000    	LEA     (#$00,A1,D1), A0		;
000F36 4CDF 0207            	MOVEM.L  (A7)+, 207		;
000F3A 4E75                 	RTS     					;
000F3C 0000 0000            	ORI.B   #$0000, D0 			;
000F40 ECC4                 	???  	D4		;
000F42 007C 0000            	ORI.W   #$0000, SR		;
000F46 009A ECC4ECC4        	ORI.L   #$ECC4ECC4, (A2)+ 			;
000F4C ECC4                 	???  	D4		;
000F4E ECC4                 	???  	D4		;
000F50 ECC4                 	???  	D4		;
000F52 ECC4                 	???  	D4		;
000F54 ECC4                 	???  	D4		;
000F56 ECC4                 	???  	D4		;
000F58 ECC4                 	???  	D4		;
000F5A ECC4                 	???  	D4		;
000F5C ECC4                 	???  	D4		;
000F5E ECC4                 	???  	D4		;
000F60 ECC4                 	???  	D4		;
000F62 00BC 00DAECC4ECC4ECC4	ORI.L   #$ECC4ECC4, #$00000207 			;
000F6C 0116                 	BTST    D0, (A6) 		;
000F6E 054E 0624            	MOVEP   (#$0624,A6), D2 		;
000F72 ECC4                 	???  	D4		;
000F74 ECC4                 	???  	D4		;
000F76 ECC4                 	???  	D4		;
000F78 ECC4                 	???  	D4		;
000F7A ECC4                 	???  	D4		;
000F7C ECC4                 	???  	D4		;
000F7E ECC4                 	???  	D4		;
000F80 ECC4                 	???  	D4		;
000F82 ECC4                 	???  	D4		;
000F84 0000 4A2C            	ORI.B   #$4A2C, D0 			;
000F88 0017 6B00            	ORI.B   #$6B00, (A7) 			;
000F8C 008A 102C0017        	ORI.L   #$102C0017, A2 			;
000F92 C03C         000C    	AND.B   D0, #$0000000C		;
000F96 B03C         0004    	CMP.B   #$00000004, D0		;
000F9A 650A                 	BCS     #$000A				;
000F9C 6736                 	BEQ     #$0036				;
000F9E B03C         0008    	CMP.B   #$00000008, D0		;
000FA2 6744                 	BEQ     #$0044				;
000FA4 6056                 	BRA     #$0056				;
000FA6 08EE 0001    0008    	BSET    #$01, (#$0008,A6)			;
000FAC 522E         0010    	ADDQ.B  #$1, (#$0010,A6)			;
000FB0 082E 0000    0010    	BTST    #$00, (#$0010,A6)			;
000FB6 670E                 	BEQ     #$000E				;
000FB8 720A                 	MOVEQ   #$0A, D1			;
000FBA 1B7C 0001    0056    	MOVE.B  #$00000001,(#$0056,A5) 		;
000FC0 6100 03C0            	BRS     #$03C0				;
000FC4 6048                 	BRA     #$0048				;
000FC6 7208                 	MOVEQ   #$08, D1			;
000FC8 1B7C 0001    0046    	MOVE.B  #$00000001,(#$0046,A5) 		;
000FCE 6100 03B2            	BRS     #$03B2				;
000FD2 603A                 	BRA     #$003A				;
000FD4 522E         0011    	ADDQ.B  #$1, (#$0011,A6)			;
000FD8 082E 0000    0011    	BTST    #$00, (#$0011,A6)			;
000FDE 6704                 	BEQ     #$0004				;
000FE0 7203                 	MOVEQ   #$03, D1			;
000FE2 602A                 	BRA     #$002A				;
000FE4 7201                 	MOVEQ   #$01, D1			;
000FE6 6026                 	BRA     #$0026				;
000FE8 522E         0012    	ADDQ.B  #$1, (#$0012,A6)			;
000FEC 082E 0000    0012    	BTST    #$00, (#$0012,A6)			;
000FF2 6704                 	BEQ     #$0004				;
000FF4 720B                 	MOVEQ   #$0B, D1			;
000FF6 6016                 	BRA     #$0016				;
000FF8 7209                 	MOVEQ   #$09, D1			;
000FFA 6012                 	BRA     #$0012				;
000FFC 522E         0013    	ADDQ.B  #$1, (#$0013,A6)			;
001000 082E 0000    0013    	BTST    #$00, (#$0013,A6)			;
001006 6704                 	BEQ     #$0004				;
001008 7207                 	MOVEQ   #$07, D1			;
00100A 6002                 	BRA     #$0002				;
00100C 7205                 	MOVEQ   #$05, D1			;
00100E E749                 	LSL.W   #3, D1		;
001010 43F5         1000    	LEA     (#$00,A5,D1), A1		;
001014 605A                 	BRA     #$005A				;
001016 43ED         0008    	LEA     (#$0008,A5), A1		;
00101A 082C 0002    0017    	BTST    #$02, (#$0017,A4)			;
001020 6724                 	BEQ     #$0024				;
001022 7205                 	MOVEQ   #$05, D1			;
001024 1029 0006            	MOVE.B  (#$0006,A1),D0 		;
001028 C03C         0084    	AND.B   D0, #$00000084		;
00102C B03C         0084    	CMP.B   #$00000084, D0		;
001030 6608                 	BNE     #$0008				;
001032 0829 0000    0006    	BTST    #$00, (#$0006,A1)			;
001038 6736                 	BEQ     #$0036				;
00103A 43E9         0010    	LEA     (#$0010,A1), A1		;
00103E 51C9 FFE4            	DBRA    D1, #$FFE4			;
001042 43ED         0008    	LEA     (#$0008,A5), A1		;
001046 7205                 	MOVEQ   #$05, D1			;
001048 0829 0000    0006    	BTST    #$00, (#$0006,A1)			;
00104E 6620                 	BNE     #$0020				;
001050 43E9         0010    	LEA     (#$0010,A1), A1		;
001054 51C9 FFF2            	DBRA    D1, #$FFF2			;
001058 43ED         0008    	LEA     (#$0008,A5), A1		;
00105C 7205                 	MOVEQ   #$05, D1			;
00105E 4A29         0006    	TST.B   (#$0006,A1)			;
001062 6B0C                 	BMI     #$000C				;
001064 43E9         0010    	LEA     (#$0010,A1), A1		;
001068 51C9 FFF4            	DBRA    D1, #$FFF4			;
00106C 6000 0112            	BRA     #$0112				;
001070 1340         FF80    	MOVE.B  D0,(#$FF80,A1) 		;
001074 136C 0011    FF82    	MOVE.B  (#$0011,A4),(#$FF82,A1) 		;
00107A 136C 0012    FF83    	MOVE.B  (#$0012,A4),(#$FF83,A1) 		;
001080 1F2C 0013            	MOVE.B  (#$0013,A4),-(A7) 		;
001084 301F                 	MOVE.W  (A7)+,D0 		;
001086 102C 0014            	MOVE.B  (#$0014,A4),D0 		;
00108A 3340         FF84    	MOVE.W  D0,(#$FF84,A1) 		;
00108E 3340         0004    	MOVE.W  D0,(#$0004,A1) 		;
001092 136C 0015    FF86    	MOVE.B  (#$0015,A4),(#$FF86,A1) 		;
001098 136C 0016    FF87    	MOVE.B  (#$0016,A4),(#$FF87,A1) 		;
00109E 136C 0017    0006    	MOVE.B  (#$0017,A4),(#$0006,A1) 		;
0010A4 2409                 	MOVE.L  A1,D2 		;
0010A6 948D                 	SUB.L   D2, A5		;
0010A8 E64A                 	LSR.W   #3, D2		;
0010AA 41F9         00100000	LEA     $00100000.L, A0		;
0010B0 43EE         03E6    	LEA     (#$03E6,A6), A1		;
0010B4 3202                 	MOVE.W  D2,D1 		;
0010B6 EB49                 	LSL.W   #5, D1		;
0010B8 D2C1                 	ADDA.W  D1, A1		;
0010BA D0C1                 	ADDA.W  D1, A0		;
0010BC 3211                 	MOVE.W  (A1),D1 		;
0010BE C27C         E7FF    	AND.W   D1, #$0000E7FF		;
0010C2 3081                 	MOVE.W  D1,(A0) 		;
0010C4 827C         1000    	OR.W    D1, #$00001000		;
0010C8 3141         0200    	MOVE.W  D1,(#$0200,A0) 		;
0010CC 7270                 	MOVEQ   #$70, D1			;
0010CE C22C         0017    	AND.B   D1, (#$0017,A4)		;
0010D2 E809                 	LSR.B   #4, D1		;
0010D4 4841                 	SWAP    D1		;
0010D6 3200                 	MOVE.W  D0,D1 		;
0010D8 D2BC         00003254	ADD.L   D1, #$00003254		;
0010DE 82BC         08100000	OR.L    D1, #$08100000		;
0010E4 082C 0001    0017    	BTST    #$01, (#$0017,A4)			;
0010EA 6606                 	BNE     #$0006				;
0010EC 82BC         00200000	OR.L    D1, #$00200000		;
0010F2 2341         0200    	MOVE.L  D1,(#$0200,A1) 		;
0010F6 22C1                 	MOVE.L  D1,(A1)+ 		;
0010F8 7000                 	MOVEQ   #$00, D0			;
0010FA 1F2C 0015            	MOVE.B  (#$0015,A4),-(A7) 		;
0010FE 301F                 	MOVE.W  (A7)+,D0 		;
001100 50C0                 	ST      D0			;
001102 1F2C 0013            	MOVE.B  (#$0013,A4),-(A7) 		;
001106 321F                 	MOVE.W  (A7)+,D1 		;
001108 122C 0014            	MOVE.B  (#$0014,A4),D1 		;
00110C 0881 000F            	BCLR    #$0000000F, D1			;
001110 9041                 	SUB.W   D1, D0		;
001112 2340         0200    	MOVE.L  D0,(#$0200,A1) 		;
001116 22C0                 	MOVE.L  D0,(A1)+ 		;
001118 2600                 	MOVE.L  D0,D3 		;
00111A 082C 0001    0017    	BTST    #$01, (#$0017,A4)			;
001120 6602                 	BNE     #$0002				;
001122 76FF                 	MOVEQ   #$FF, D3			;
001124 237C 003F001F0200    	MOVE.L  #$003F001F,(#$0200,A1) 		;
00112C 22FC 003F001F        	MOVE.L  #$003F001F,(A1)+ 		;
001132 7000                 	MOVEQ   #$00, D0			;
001134 7200                 	MOVEQ   #$00, D1			;
001136 102C 0011            	MOVE.B  (#$0011,A4),D0 		;
00113A 122C 0012            	MOVE.B  (#$0012,A4),D1 		;
00113E 6100 02B0            	BRS     #$02B0				;
001142 2341         0200    	MOVE.L  D1,(#$0200,A1) 		;
001146 22C0                 	MOVE.L  D0,(A1)+ 		;
001148 7000                 	MOVEQ   #$00, D0			;
00114A 102C 0016            	MOVE.B  (#$0016,A4),D0 		;
00114E 2200                 	MOVE.L  D0,D1 		;
001150 D040                 	ADD.W   D0, D0		;
001152 303B 002E            	MOVE.W  (#$2E,PC,D0),D0 		;
001156 907C         0800    	SUB.W   D0, #$00000800		;
00115A 4840                 	SWAP    D0		;
00115C 2340         0200    	MOVE.L  D0,(#$0200,A1) 		;
001160 22C0                 	MOVE.L  D0,(A1)+ 		;
001162 203C 0000EF00        	MOVE.L  #$0000EF00,D0 		;
001168 1029 0203            	MOVE.B  (#$0203,A1),D0 		;
00116C 2340         0200    	MOVE.L  D0,(#$0200,A1) 		;
001170 203C 0000FF00        	MOVE.L  #$0000FF00,D0 		;
001176 1029 0003            	MOVE.B  (#$0003,A1),D0 		;
00117A 22C0                 	MOVE.L  D0,(A1)+ 		;
00117C 6100 0318            	BRS     #$0318				;
001180 4E75                 	RTS     					;
001182 01AB         FFFF    	BCLR    D0, (#$0318,A3) 		;
001186 49AB         5040    	CHK     (#$5040,A3), D4		;
00118A 51AB         5316    	SUBQ.L  #$0, (#$5316,A3)			;
00118E 5840                 	ADDQ.W  #$4, D0			;
001190 58F6         59AB    	SVC     (#$AB,A6,D5)			;
001194 5A61                 	ADDQ.W  #$5, -(A1)			;
001196 5B16                 	SUBQ.B  #$5, (A6)			;
001198 5BCB 6040            	DBMI    D3, #$6040			;
00119C 609B                 	BRA     #$FF9B				;
00119E 60F6                 	BRA     #$FFF6				;
0011A0 6151                 	BRS     #$0051				;
0011A2 61AB                 	BRS     #$FFAB				;
0011A4 6206                 	BLS     #$0006				;
0011A6 6261                 	BLS     #$0061				;
0011A8 62BB                 	BLS     #$FFBB				;
0011AA 6316                 	BHI     #$0016				;
0011AC 6371                 	BHI     #$0071				;
0011AE 63CB                 	BHI     #$FFCB				;
0011B0 6813                 	BVC     #$0013				;
0011B2 6840                 	BVC     #$0040				;
0011B4 686E                 	BVC     #$006E				;
0011B6 689B                 	BVC     #$FF9B				;
0011B8 68C8                 	BVC     #$FFC8				;
0011BA 68F6                 	BVC     #$FFF6				;
0011BC 6923                 	BVS     #$0023				;
0011BE 6951                 	BVS     #$0051				;
0011C0 697E                 	BVS     #$007E				;
0011C2 69AB                 	BVS     #$FFAB				;
0011C4 69D9                 	BVS     #$FFD9				;
0011C6 6A06                 	BPL     #$0006				;
0011C8 6A33                 	BPL     #$0033				;
0011CA 6A61                 	BPL     #$0061				;
0011CC 6A8E                 	BPL     #$FF8E				;
0011CE 6ABB                 	BPL     #$FFBB				;
0011D0 6AE9                 	BPL     #$FFE9				;
0011D2 6B16                 	BMI     #$0016				;
0011D4 6B43                 	BMI     #$0043				;
0011D6 6B71                 	BMI     #$0071				;
0011D8 6B9E                 	BMI     #$FF9E				;
0011DA 6BCB                 	BMI     #$FFCB				;
0011DC 6BF9                 	BMI     #$FFF9				;
0011DE 7013                 	MOVEQ   #$13, D0			;
0011E0 702A                 	MOVEQ   #$2A, D0			;
0011E2 7040                 	MOVEQ   #$40, D0			;
0011E4 7057                 	MOVEQ   #$57, D0			;
0011E6 706E                 	MOVEQ   #$6E, D0			;
0011E8 7084                 	MOVEQ   #$84, D0			;
0011EA 709B                 	MOVEQ   #$9B, D0			;
0011EC 70B2                 	MOVEQ   #$B2, D0			;
0011EE 70C8                 	MOVEQ   #$C8, D0			;
0011F0 70DF                 	MOVEQ   #$DF, D0			;
0011F2 70F6                 	MOVEQ   #$F6, D0			;
0011F4 710D                 	MOVEQ   #$0D, D0			;
0011F6 7123                 	MOVEQ   #$23, D0			;
0011F8 713A                 	MOVEQ   #$3A, D0			;
0011FA 7151                 	MOVEQ   #$51, D0			;
0011FC 7167                 	MOVEQ   #$67, D0			;
0011FE 717E                 	MOVEQ   #$7E, D0			;
001200 7195                 	MOVEQ   #$95, D0			;
001202 71AB                 	MOVEQ   #$AB, D0			;
001204 71C2                 	MOVEQ   #$C2, D0			;
001206 71D9                 	MOVEQ   #$D9, D0			;
001208 71EF                 	MOVEQ   #$EF, D0			;
00120A 7206                 	MOVEQ   #$06, D1			;
00120C 721D                 	MOVEQ   #$1D, D1			;
00120E 7233                 	MOVEQ   #$33, D1			;
001210 724A                 	MOVEQ   #$4A, D1			;
001212 7261                 	MOVEQ   #$61, D1			;
001214 7277                 	MOVEQ   #$77, D1			;
001216 728E                 	MOVEQ   #$8E, D1			;
001218 72A5                 	MOVEQ   #$A5, D1			;
00121A 72BB                 	MOVEQ   #$BB, D1			;
00121C 72D2                 	MOVEQ   #$D2, D1			;
00121E 72E9                 	MOVEQ   #$E9, D1			;
001220 72FF                 	MOVEQ   #$FF, D1			;
001222 7316                 	MOVEQ   #$16, D1			;
001224 732D                 	MOVEQ   #$2D, D1			;
001226 7343                 	MOVEQ   #$43, D1			;
001228 735A                 	MOVEQ   #$5A, D1			;
00122A 7371                 	MOVEQ   #$71, D1			;
00122C 7387                 	MOVEQ   #$87, D1			;
00122E 739E                 	MOVEQ   #$9E, D1			;
001230 73B5                 	MOVEQ   #$B5, D1			;
001232 73CB                 	MOVEQ   #$CB, D1			;
001234 73E2                 	MOVEQ   #$E2, D1			;
001236 73F9                 	MOVEQ   #$F9, D1			;
001238 7808                 	MOVEQ   #$08, D4			;
00123A 7813                 	MOVEQ   #$13, D4			;
00123C 781E                 	MOVEQ   #$1E, D4			;
00123E 782A                 	MOVEQ   #$2A, D4			;
001240 7835                 	MOVEQ   #$35, D4			;
001242 7840                 	MOVEQ   #$40, D4			;
001244 784C                 	MOVEQ   #$4C, D4			;
001246 7857                 	MOVEQ   #$57, D4			;
001248 7862                 	MOVEQ   #$62, D4			;
00124A 786E                 	MOVEQ   #$6E, D4			;
00124C 7879                 	MOVEQ   #$79, D4			;
00124E 7884                 	MOVEQ   #$84, D4			;
001250 7890                 	MOVEQ   #$90, D4			;
001252 789B                 	MOVEQ   #$9B, D4			;
001254 78A6                 	MOVEQ   #$A6, D4			;
001256 78B2                 	MOVEQ   #$B2, D4			;
001258 78BD                 	MOVEQ   #$BD, D4			;
00125A 78C8                 	MOVEQ   #$C8, D4			;
00125C 78D4                 	MOVEQ   #$D4, D4			;
00125E 78DF                 	MOVEQ   #$DF, D4			;
001260 78EB                 	MOVEQ   #$EB, D4			;
001262 78F6                 	MOVEQ   #$F6, D4			;
001264 7901                 	MOVEQ   #$01, D4			;
001266 790D                 	MOVEQ   #$0D, D4			;
001268 7918                 	MOVEQ   #$18, D4			;
00126A 7923                 	MOVEQ   #$23, D4			;
00126C 792F                 	MOVEQ   #$2F, D4			;
00126E 793A                 	MOVEQ   #$3A, D4			;
001270 7945                 	MOVEQ   #$45, D4			;
001272 7951                 	MOVEQ   #$51, D4			;
001274 795C                 	MOVEQ   #$5C, D4			;
001276 7967                 	MOVEQ   #$67, D4			;
001278 7973                 	MOVEQ   #$73, D4			;
00127A 797E                 	MOVEQ   #$7E, D4			;
00127C 7989                 	MOVEQ   #$89, D4			;
00127E 7995                 	MOVEQ   #$95, D4			;
001280 79A0                 	MOVEQ   #$A0, D4			;
001282 79AB                 	MOVEQ   #$AB, D4			;
001284 79B7                 	MOVEQ   #$B7, D4			;
001286 79C2                 	MOVEQ   #$C2, D4			;
001288 79CD                 	MOVEQ   #$CD, D4			;
00128A 79D9                 	MOVEQ   #$D9, D4			;
00128C 79E4                 	MOVEQ   #$E4, D4			;
00128E 79EF                 	MOVEQ   #$EF, D4			;
001290 79FB                 	MOVEQ   #$FB, D4			;
001292 7A06                 	MOVEQ   #$06, D5			;
001294 7A11                 	MOVEQ   #$11, D5			;
001296 7A1D                 	MOVEQ   #$1D, D5			;
001298 7A28                 	MOVEQ   #$28, D5			;
00129A 7A33                 	MOVEQ   #$33, D5			;
00129C 7A3F                 	MOVEQ   #$3F, D5			;
00129E 7A4A                 	MOVEQ   #$4A, D5			;
0012A0 7A55                 	MOVEQ   #$55, D5			;
0012A2 7A61                 	MOVEQ   #$61, D5			;
0012A4 7A6C                 	MOVEQ   #$6C, D5			;
0012A6 7A77                 	MOVEQ   #$77, D5			;
0012A8 7A83                 	MOVEQ   #$83, D5			;
0012AA 7A8E                 	MOVEQ   #$8E, D5			;
0012AC 7A99                 	MOVEQ   #$99, D5			;
0012AE 7AA5                 	MOVEQ   #$A5, D5			;
0012B0 7AB0                 	MOVEQ   #$B0, D5			;
0012B2 7ABB                 	MOVEQ   #$BB, D5			;
0012B4 7AC7                 	MOVEQ   #$C7, D5			;
0012B6 7AD2                 	MOVEQ   #$D2, D5			;
0012B8 7ADD                 	MOVEQ   #$DD, D5			;
0012BA 7AE9                 	MOVEQ   #$E9, D5			;
0012BC 7AF4                 	MOVEQ   #$F4, D5			;
0012BE 7AFF                 	MOVEQ   #$FF, D5			;
0012C0 7B0B                 	MOVEQ   #$0B, D5			;
0012C2 7B16                 	MOVEQ   #$16, D5			;
0012C4 7B21                 	MOVEQ   #$21, D5			;
0012C6 7B2D                 	MOVEQ   #$2D, D5			;
0012C8 7B38                 	MOVEQ   #$38, D5			;
0012CA 7B43                 	MOVEQ   #$43, D5			;
0012CC 7B4F                 	MOVEQ   #$4F, D5			;
0012CE 7B5A                 	MOVEQ   #$5A, D5			;
0012D0 7B65                 	MOVEQ   #$65, D5			;
0012D2 7B71                 	MOVEQ   #$71, D5			;
0012D4 7B7C                 	MOVEQ   #$7C, D5			;
0012D6 7B87                 	MOVEQ   #$87, D5			;
0012D8 7B93                 	MOVEQ   #$93, D5			;
0012DA 7B9E                 	MOVEQ   #$9E, D5			;
0012DC 7BA9                 	MOVEQ   #$A9, D5			;
0012DE 7BB5                 	MOVEQ   #$B5, D5			;
0012E0 7BC0                 	MOVEQ   #$C0, D5			;
0012E2 7BCB                 	MOVEQ   #$CB, D5			;
0012E4 7BD7                 	MOVEQ   #$D7, D5			;
0012E6 7BE2                 	MOVEQ   #$E2, D5			;
0012E8 7BED                 	MOVEQ   #$ED, D5			;
0012EA 7BF9                 	MOVEQ   #$F9, D5			;
0012EC 0002 0008            	ORI.B   #$0008, D2 			;
0012F0 000D 0013            	ORI.B   #$0013, A5 			;
0012F4 0019 001E            	ORI.B   #$001E, (A1)+ 			;
0012F8 0024 002A            	ORI.B   #$002A, -(A4) 			;
0012FC 002F 0035    003B    	ORI.B   #$003B, (#$FFF9,A7) 			;
001302 0040 0046            	ORI.W   #$0046, D0 			;
001306 004C 0051            	ORI.W   #$0051, A4 			;
00130A 0057 005D            	ORI.W   #$005D, (A7) 			;
00130E 0062 0068            	ORI.W   #$0068, -(A2) 			;
001312 006E 0073    0079    	ORI.W   #$0079, (#$FFF9,A6) 			;
001318 007F 0084    008A    	ORI.W   #$008A, #$0000FFF9 			;
00131E 0090 0095009B        	ORI.L   #$0095009B, (A0) 			;
001324 00A1 00A600AC        	ORI.L   #$00A600AC, -(A1) 			;
00132A 00B2 00B700BD00C3    	ORI.L   #$000000C3, (#$F9,A2,A7) 			;
001332 00C8 00CE00D4        	ORI.?   #$00CE00D4, A0 			;
001338 00D9 00DF00E5        	ORI.?   #$00DF00E5, (A1)+ 			;
00133E 00EB 00F000F600FC    	ORI.?   #$000000FC, (#$FFF9,A3) 			;
001346 0101                 	BTST    D0, D1 		;
001348 0107                 	BTST    D0, D7 		;
00134A 010D 0112            	MOVEP   (#$0112,A5), D0 		;
00134E 0118                 	BTST    D0, (A0)+ 		;
001350 011E                 	BTST    D0, (A6)+ 		;
001352 0123                 	BTST    D0, -(A3) 		;
001354 0129         012F    	BTST    D0, (#$FFF9,A1) 		;
001358 0134         013A    	BTST    D0, (#$F9,A4,A7) 		;
00135C 0140                 	BCHG    D0, D0 		;
00135E 0145                 	BCHG    D0, D5 		;
001360 014B 0151            	MOVEP   (#$0151,A3), D0 		;
001364 0156                 	BCHG    D0, (A6) 		;
001366 015C                 	BCHG    D0, (A4)+ 		;
001368 0162                 	BCHG    D0, -(A2) 		;
00136A 0167                 	BCHG    D0, -(A7) 		;
00136C 016D         0173    	BCHG    D0, (#$FFF9,A5) 		;
001370 0178         017E    	BCHG    D0, $FFF9.W 		;
001374 0184                 	BCLR    D0, D4 		;
001376 0189 018F            	MOVEP   D0, (#$018F,A1) 		;
00137A 0195                 	BCLR    D0, (A5) 		;
00137C 019A                 	BCLR    D0, (A2)+ 		;
00137E 01A0                 	BCLR    D0, -(A0) 		;
001380 01A6                 	BCLR    D0, -(A6) 		;
001382 48E7 80C0            	MOVEM.L  80C0, -(A7)		;
001386 3001                 	MOVE.W  D1,D0 		;
001388 E548                 	LSL.W   #2, D0		;
00138A 41EE         07E6    	LEA     (#$07E6,A6), A0		;
00138E 42B0         0000    	CLR     (#$00,A0,D0)		;
001392 D040                 	ADD.W   D0, D0		;
001394 08F5 0000    0006    	BSET    #$00, (#$06,A5,D0)			;
00139A E548                 	LSL.W   #2, D0		;
00139C 41F9         00100000	LEA     $00100000.L, A0		;
0013A2 43EE         03E6    	LEA     (#$03E6,A6), A1		;
0013A6 D0C0                 	ADDA.W  D0, A0		;
0013A8 D2C0                 	ADDA.W  D0, A1		;
0013AA 3011                 	MOVE.W  (A1),D0 		;
0013AC C07C         E7FF    	AND.W   D0, #$0000E7FF		;
0013B0 3340         0200    	MOVE.W  D0,(#$0200,A1) 		;
0013B4 3280                 	MOVE.W  D0,(A1) 		;
0013B6 807C         1000    	OR.W    D0, #$00001000		;
0013BA 3140         0200    	MOVE.W  D0,(#$0200,A0) 		;
0013BE 3080                 	MOVE.W  D0,(A0) 		;
0013C0 4CDF 0301            	MOVEM.L  (A7)+, 301		;
0013C4 4E75                 	RTS     					;
0013C6 700F                 	MOVEQ   #$0F, D0			;
0013C8 43F9         0006D84E	LEA     $0006D84E.L, A1		;
0013CE 41EE         07E6    	LEA     (#$07E6,A6), A0		;
0013D2 72FF                 	MOVEQ   #$FF, D1			;
0013D4 2418                 	MOVE.L  (A0)+,D2 		;
0013D6 6710                 	BEQ     #$0010				;
0013D8 B481                 	CMP.L   D1, D2		;
0013DA 670C                 	BEQ     #$000C				;
0013DC 53A8         FFFC    	SUBQ.L  #$1, (#$FFFC,A0)			;
0013E0 6606                 	BNE     #$0006				;
0013E2 08E9 0000    0006    	BSET    #$00, (#$0006,A1)			;
0013E8 5049                 	ADDQ.W  #$0, A1			;
0013EA 51C8 FFE8            	DBRA    D0, #$FFE8			;
0013EE 4E75                 	RTS     					;
0013F0 41FA         0024    	LEA     (#$0024,PC), A0		;
0013F4 4A2E         03E4    	TST.B   (#$03E4,A6)			;
0013F8 670E                 	BEQ     #$000E				;
0013FA 1030 0000            	MOVE.B  (#$00,A0,D0),D0 		;
0013FE 4840                 	SWAP    D0		;
001400 1230 1000            	MOVE.B  (#$00,A0,D1),D1 		;
001404 4841                 	SWAP    D1		;
001406 4E75                 	RTS     					;
001408 D041                 	ADD.W   D1, D0		;
00140A E248                 	LSR.W   #1, D0		;
00140C 1030 0000            	MOVE.B  (#$00,A0,D0),D0 		;
001410 4840                 	SWAP    D0		;
001412 2200                 	MOVE.L  D0,D1 		;
001414 4E75                 	RTS     					;
001416 FF76                 	???    		;
001418 665C                 	BNE     #$005C				;
00141A 5650                 	ADDQ.W  #$3, (A0)			;
00141C 4C49                 	???     		;
00141E 4643                 	NOT    	D3		;
001420 403E         3C3A    	NEGX    #$00003C3A		;
001424 3937 3634            	MOVE.W  (#$34,A7,D3),-(A4) 		;
001428 3332 302F            	MOVE.W  (#$2F,A2,D3),-(A1) 		;
00142C 2E2D 2C2B            	MOVE.L  (#$2C2B,A5),D7 		;
001430 2A2A 2928            	MOVE.L  (#$2928,A2),D5 		;
001434 2726                 	MOVE.L  -(A6),-(A3) 		;
001436 2625                 	MOVE.L  -(A5),D3 		;
001438 2424                 	MOVE.L  -(A4),D2 		;
00143A 2322                 	MOVE.L  -(A2),-(A1) 		;
00143C 2221                 	MOVE.L  -(A1),D1 		;
00143E 2020                 	MOVE.L  -(A0),D0 		;
001440 1F1F                 	MOVE.B  (A7)+,-(A7) 		;
001442 1E1E                 	MOVE.B  (A6)+,D7 		;
001444 1D1D                 	MOVE.B  (A5)+,-(A6) 		;
001446 1C1C                 	MOVE.B  (A4)+,D6 		;
001448 1B1B                 	MOVE.B  (A3)+,-(A5) 		;
00144A 1A1A                 	MOVE.B  (A2)+,D5 		;
00144C 1A19                 	MOVE.B  (A1)+,D5 		;
00144E 1918                 	MOVE.B  (A0)+,-(A4) 		;
001450 1818                 	MOVE.B  (A0)+,D4 		;
001452 1717                 	MOVE.B  (A7),-(A3) 		;
001454 1616                 	MOVE.B  (A6),D3 		;
001456 FF76                 	???    		;
001458 665C                 	BNE     #$005C				;
00145A 5650                 	ADDQ.W  #$3, (A0)			;
00145C 4C49                 	???     		;
00145E 4643                 	NOT    	D3		;
001460 403E         3C3A    	NEGX    #$00003C3A		;
001464 3937 3634            	MOVE.W  (#$34,A7,D3),-(A4) 		;
001468 3332 302F            	MOVE.W  (#$2F,A2,D3),-(A1) 		;
00146C 2E2D 2C2B            	MOVE.L  (#$2C2B,A5),D7 		;
001470 2A2A 2928            	MOVE.L  (#$2928,A2),D5 		;
001474 2726                 	MOVE.L  -(A6),-(A3) 		;
001476 2625                 	MOVE.L  -(A5),D3 		;
001478 2424                 	MOVE.L  -(A4),D2 		;
00147A 2322                 	MOVE.L  -(A2),-(A1) 		;
00147C 2221                 	MOVE.L  -(A1),D1 		;
00147E 2020                 	MOVE.L  -(A0),D0 		;
001480 1F1F                 	MOVE.B  (A7)+,-(A7) 		;
001482 1E1E                 	MOVE.B  (A6)+,D7 		;
001484 1D1D                 	MOVE.B  (A5)+,-(A6) 		;
001486 1C1C                 	MOVE.B  (A4)+,D6 		;
001488 1B1B                 	MOVE.B  (A3)+,-(A5) 		;
00148A 1A1A                 	MOVE.B  (A2)+,D5 		;
00148C 1A19                 	MOVE.B  (A1)+,D5 		;
00148E 1918                 	MOVE.B  (A0)+,-(A4) 		;
001490 1818                 	MOVE.B  (A0)+,D4 		;
001492 1717                 	MOVE.B  (A7),-(A3) 		;
001494 1616                 	MOVE.B  (A6),D3 		;
001496 B6BC         FFFFFFFF	CMP.L   #$FFFFFFFF, D3		;
00149C 6708                 	BEQ     #$0008				;
00149E D241                 	ADD.W   D1, D1		;
0014A0 C6FB         1010    	MULU    (#$10,PC,D1), D3		;
0014A4 E08B                 	LSR.L   #0, D3		;
0014A6 E54A                 	LSL.W   #2, D2		;
0014A8 41EE         07E6    	LEA     (#$07E6,A6), A0		;
0014AC 2183         2000    	MOVE.L  D3,(#$00,A0,D2) 		;
0014B0 4E75                 	RTS     					;
