RESET_SSP:      	0000A000
RESET_PC:       	00001000
BUS_ERROR:      	00001526
ADDRESS_ERROR:  	000014B4
INVALID_CMD:    	000014DE
CALC_BY_0:      	000014E4
CHK_CMD:        	000014EA
TRAPV_CMD:      	000014F0
PRIV_VIOL:      	000014F6
TRACE:          	000014FC
LINE_1010:      	00001502
LINE_1111:      	00001502
RESERVED_12:    	00001508
RESERVED_13:    	00001508
RESERVED_14:    	00001508
UNINIT_INT:     	0000150E
RESERVED_16:    	00001508
RESERVED_17:    	00001508
RESERVED_18:    	00001508
RESERVED_19:    	00001508
RESERVED_20:    	00001508
RESERVED_21:    	00001508
RESERVED_22:    	00001508
RESERVED_23:    	00001508
SPURIOUS_INT:   	00001514
LVL1_INT:       	000014BA
LVL2_INT:       	00001382
LVL3_INT:       	000014CC
LVL4_INT:       	000014D2
LVL5_INT:       	000014C0
LVL6_INT:       	000014C6
LVL7_INT:       	000014D8
TRAP_32:        	0000151A
TRAP_33:        	0000151A
TRAP_34:        	0000151A
TRAP_35:        	0000151A
TRAP_36:        	0000151A
TRAP_37:        	0000151A
TRAP_38:        	0000151A
TRAP_39:        	0000151A
TRAP_40:        	0000151A
TRAP_41:        	0000151A
TRAP_42:        	0000151A
TRAP_43:        	0000151A
TRAP_44:        	0000151A
TRAP_45:        	0000151A
TRAP_46:        	0000151A
TRAP_47:        	0000151A
RESERVED_48:    	00001508
RESERVED_49:    	00001508
RESERVED_50:    	00001508
RESERVED_51:    	00001508
RESERVED_52:    	00001508
RESERVED_53:    	00001508
RESERVED_54:    	00001508
RESERVED_55:    	00001508
RESERVED_56:    	00001508
RESERVED_57:    	00001508
RESERVED_58:    	00001508
RESERVED_59:    	00001508
RESERVED_60:    	00001508
RESERVED_61:    	00001508
RESERVED_62:    	00001508
RESERVED_63:    	00001508
USER_64:       	00001520
USER_65:       	00001520
USER_66:       	00001520
USER_67:       	00001520
USER_68:       	00001520
USER_69:       	00001520
USER_70:       	00001520
USER_71:       	00001520
USER_72:       	00001520
USER_73:       	00001520
USER_74:       	00001520
USER_75:       	00001520
USER_76:       	00001520
USER_77:       	00001520
USER_78:       	00001520
USER_79:       	00001520
USER_80:       	00001520
USER_81:       	00001520
USER_82:       	00001520
USER_83:       	00001520
USER_84:       	00001520
USER_85:       	00001520
USER_86:       	00001520
USER_87:       	00001520
USER_88:       	00001520
USER_89:       	00001520
USER_90:       	00001520
USER_91:       	00001520
USER_92:       	00001520
USER_93:       	00001520
USER_94:       	00001520
USER_95:       	00001520
USER_96:       	00001520
USER_97:       	00001520
USER_98:       	00001520
USER_99:       	00001520
USER_100:       	00001520
USER_101:       	00001520
USER_102:       	00001520
USER_103:       	00001520
USER_104:       	00001520
USER_105:       	00001520
USER_106:       	00001520
USER_107:       	00001520
USER_108:       	00001520
USER_109:       	00001520
USER_110:       	00001520
USER_111:       	00001520
USER_112:       	00001520
USER_113:       	00001520
USER_114:       	00001520
USER_115:       	00001520
USER_116:       	00001520
USER_117:       	00001520
USER_118:       	00001520
USER_119:       	00001520
USER_120:       	00001520
USER_121:       	00001520
USER_122:       	00001520
USER_123:       	00001520
USER_124:       	00001520
USER_125:       	00001520
USER_126:       	00001520
USER_127:       	00001520
USER_128:       	00001520
USER_129:       	00001520
USER_130:       	00001520
USER_131:       	00001520
USER_132:       	00001520
USER_133:       	00001520
USER_134:       	00001520
USER_135:       	00001520
USER_136:       	00001520
USER_137:       	00001520
USER_138:       	00001520
USER_139:       	00001520
USER_140:       	00001520
USER_141:       	00001520
USER_142:       	00001520
USER_143:       	00001520
USER_144:       	00001520
USER_145:       	00001520
USER_146:       	00001520
USER_147:       	00001520
USER_148:       	00001520
USER_149:       	00001520
USER_150:       	00001520
USER_151:       	00001520
USER_152:       	00001520
USER_153:       	00001520
USER_154:       	00001520
USER_155:       	00001520
USER_156:       	00001520
USER_157:       	00001520
USER_158:       	00001520
USER_159:       	00001520
USER_160:       	00001520
USER_161:       	00001520
USER_162:       	00001520
USER_163:       	00001520
USER_164:       	00001520
USER_165:       	00001520
USER_166:       	00001520
USER_167:       	00001520
USER_168:       	00001520
USER_169:       	00001520
USER_170:       	00001520
USER_171:       	00001520
USER_172:       	00001520
USER_173:       	00001520
USER_174:       	00001520
USER_175:       	00001520
USER_176:       	00001520
USER_177:       	00001520
USER_178:       	00001520
USER_179:       	00001520
USER_180:       	00001520
USER_181:       	00001520
USER_182:       	00001520
USER_183:       	00001520
USER_184:       	00001520
USER_185:       	00001520
USER_186:       	00001520
USER_187:       	00001520
USER_188:       	00001520
USER_189:       	00001520
USER_190:       	00001520
USER_191:       	00001520
USER_192:       	00001520
USER_193:       	00001520
USER_194:       	00001520
USER_195:       	00001520
USER_196:       	00001520
USER_197:       	00001520
USER_198:       	00001520
USER_199:       	00001520
USER_200:       	00001520
USER_201:       	00001520
USER_202:       	00001520
USER_203:       	00001520
USER_204:       	00001520
USER_205:       	00001520
USER_206:       	00001520
USER_207:       	00001520
USER_208:       	00001520
USER_209:       	00001520
USER_210:       	00001520
USER_211:       	00001520
USER_212:       	00001520
USER_213:       	00001520
USER_214:       	00001520
USER_215:       	00001520
USER_216:       	00001520
USER_217:       	00001520
USER_218:       	00001520
USER_219:       	00001520
USER_220:       	00001520
USER_221:       	00001520
USER_222:       	00001520
USER_223:       	00001520
USER_224:       	00001520
USER_225:       	00001520
USER_226:       	00001520
USER_227:       	00001520
USER_228:       	00001520
USER_229:       	00001520
USER_230:       	00001520
USER_231:       	00001520
USER_232:       	00001520
USER_233:       	00001520
USER_234:       	00001520
USER_235:       	00001520
USER_236:       	00001520
USER_237:       	00001520
USER_238:       	00001520
USER_239:       	00001520
USER_240:       	00001520
USER_241:       	00001520
USER_242:       	00001520
USER_243:       	00001520
USER_244:       	00001520
USER_245:       	00001520
USER_246:       	00001520
USER_247:       	00001520
USER_248:       	00001520
USER_249:       	00001520
USER_250:       	00001520
USER_251:       	00001520
USER_252:       	00001520
USER_253:       	00001520
USER_254:       	00001520
USER_255:       	00001520


001000 46FC         2700    	MOVE    #$00002700, SR		;
001004 7000                 	MOVEQ   #$00, D0			;
001006 2200                 	MOVE.L  D0,D1 		;
001008 2400                 	MOVE.L  D0,D2 		;
00100A 2600                 	MOVE.L  D0,D3 		;
00100C 2800                 	MOVE.L  D0,D4 		;
00100E 6020                 	BRA     #$0020				;
001010 7665                 	MOVEQ   #$65, D3			;
001012 7231                 	MOVEQ   #$31, D1			;
001014 2E32 3420            	MOVE.L  (#$20,A2,D3),D7 		;
001018 3934 2F31            	MOVE.W  (#$31,A4,D2),-(A4) 		;
00101C 302F 3231            	MOVE.W  (#$3231,A7),D0 		;
001020 5341                 	SUBQ.W  #$1, D1			;
001022 5455                 	ADDQ.W  #$2, (A5)			;
001024 524E                 	ADDQ.W  #$1, A6			;
001026 2020                 	MOVE.L  -(A0),D0 		;
001028 6D6F                 	BLT     #$006F				;
00102A 6465                 	BCC     #$0065				;
00102C 6C2D                 	BGE     #$002D				;
00102E 5320                 	SUBQ.B  #$1, -(A0)			;
001030 2A00                 	MOVE.L  D0,D5 		;
001032 2C00                 	MOVE.L  D0,D6 		;
001034 2E00                 	MOVE.L  D0,D7 		;
001036 2040                 	MOVE.L  D0,A0 		;
001038 2240                 	MOVE.L  D0,A1 		;
00103A 2440                 	MOVE.L  D0,A2 		;
00103C 2640                 	MOVE.L  D0,A3 		;
00103E 2840                 	MOVE.L  D0,A4 		;
001040 2A40                 	MOVE.L  D0,A5 		;
001042 2C40                 	MOVE.L  D0,A6 		;
001044 4DF8         6000    	LEA     $6000.W, A6		;
001048 4FF9         0000A000	LEA     $0000A000.L, A7		;
00104E 4BF9         00100000	LEA     $00100000.L, A5		;
001054 4EBA         2280    	JSR     (#$2280,PC)			;
001058 4EBA         2310    	JSR     (#$2310,PC)			;
00105C 4EBA         2214    	JSR     (#$2214,PC)			;
001060 4EBA         22E6    	JSR     (#$22E6,PC)			;
001064 3D7C 0000    1848    	MOVE.W  #$00000000,(#$1848,A6) 		;
00106A 2D6E 0004    184C    	MOVE.L  (#$0004,A6),(#$184C,A6) 		;
001070 4EBA         0348    	JSR     (#$0348,PC)			;
001074 4EBA         037A    	JSR     (#$037A,PC)			;
001078 1B7C 0002    0400    	MOVE.B  #$00000002,(#$0400,A5) 		;
00107E 46FC         2000    	MOVE    #$00002000, SR		;
001082 526E         1842    	ADDQ.W  #$1, (#$1842,A6)			;
001086 7000                 	MOVEQ   #$00, D0			;
001088 102E 1841            	MOVE.B  (#$1841,A6),D0 		;
00108C B02E         1840    	CMP.B   (#$1840,A6), D0		;
001090 6704                 	BEQ     #$0004				;
001092 4EBA         0F12    	JSR     (#$0F12,PC)			;
001096 4EBA         012C    	JSR     (#$012C,PC)			;
00109A 302D 0420            	MOVE.W  (#$0420,A5),D0 		;
00109E 0240 0040            	ANDI.W  #$0040, D0			;
0010A2 67DE                 	BEQ     #$FFDE				;
0010A4 3B7C 00A7    0418    	MOVE.W  #$000000A7,(#$0418,A5) 		;
0010AA 3B7C 0040    0422    	MOVE.W  #$00000040,(#$0422,A5) 		;
0010B0 522E         1827    	ADDQ.B  #$1, (#$1827,A6)			;
0010B4 4EBA         00A4    	JSR     (#$00A4,PC)			;
0010B8 4EBA         0088    	JSR     (#$0088,PC)			;
0010BC 4EBA         003E    	JSR     (#$003E,PC)			;
0010C0 1038 0483            	MOVE.B  $0483.W,D0 		;
0010C4 B12E         1831    	EOR.B   (#$1831,A6), D0		;
0010C8 6AB8                 	BPL     #$FFB8				;
0010CA 4EBA         0004    	JSR     (#$0004,PC)			;
0010CE 60B2                 	BRA     #$FFB2				;
0010D0 1D40         1831    	MOVE.B  D0,(#$1831,A6) 		;
0010D4 6B02                 	BMI     #$0002				;
0010D6 4E75                 	RTS     					;
0010D8 7800                 	MOVEQ   #$00, D4			;
0010DA 7E11                 	MOVEQ   #$11, D7			;
0010DC 0275 E0E0    4016    	ANDI.W  #$4016, (#$02,A5,D0)			;
0010E2 0644 0020            	ADDI.W  #$0020, D4			;
0010E6 51CF FFF4            	DBRA    D7, #$FFF4			;
0010EA 7E0D                 	MOVEQ   #$0D, D7			;
0010EC 0235 00E0    4016    	ANDI.B  #$4016, (#$F4,A5,A7)			;
0010F2 0644 0020            	ADDI.W  #$0020, D4			;
0010F6 51CF FFF4            	DBRA    D7, #$FFF4			;
0010FA 4E75                 	RTS     					;
0010FC 1038 0410            	MOVE.B  $0410.W,D0 		;
001100 6A3E                 	BPL     #$003E				;
001102 0200 007F            	ANDI.B  #$007F, D0			;
001106 11C0         0410    	MOVE.B  D0,$0410.W 		;
00110A 43F8         0600    	LEA     $0600.W, A1		;
00110E 3229 0044            	MOVE.W  (#$0044,A1),D1 		;
001112 3001                 	MOVE.W  D1,D0 		;
001114 0240 007F            	ANDI.W  #$007F, D0			;
001118 4840                 	SWAP    D0		;
00111A 4240                 	CLR     D0		;
00111C E688                 	LSR.L   #3, D0		;
00111E EE49                 	LSR.W   #7, D1		;
001120 0241 0003            	ANDI.W  #$0003, D1			;
001124 5241                 	ADDQ.W  #$1, D1			;
001126 243C 00002000        	MOVE.L  #$00002000,D2 		;
00112C E3AA                 	LSL.L   D1, D2		;
00112E D082                 	ADD.L   D2, D0		;
001130 2D40         1804    	MOVE.L  D0,(#$1804,A6) 		;
001134 2040                 	MOVE.L  D0,A0 		;
001136 7E0F                 	MOVEQ   #$0F, D7			;
001138 7000                 	MOVEQ   #$00, D0			;
00113A 20C0                 	MOVE.L  D0,(A0)+ 		;
00113C 51CF FFFC            	DBRA    D7, #$FFFC			;
001140 4E75                 	RTS     					;
001142 102E 1827            	MOVE.B  (#$1827,A6),D0 		;
001146 0200 0003            	ANDI.B  #$0003, D0			;
00114A 660C                 	BNE     #$000C				;
00114C 4247                 	CLR     D7		;
00114E 1E2E 1830            	MOVE.B  (#$1830,A6),D7 		;
001152 6704                 	BEQ     #$0004				;
001154 4EBA         0B2A    	JSR     (#$0B2A,PC)			;
001158 4E75                 	RTS     					;
00115A 7800                 	MOVEQ   #$00, D4			;
00115C 3A3C 0100            	MOVE.W  #$00000100,D5 		;
001160 102E 1827            	MOVE.B  (#$1827,A6),D0 		;
001164 0240 0003            	ANDI.W  #$0003, D0			;
001168 D040                 	ADD.W   D0, D0		;
00116A 4EFB         0002    	JMP     (#$02,PC,D0)			;
00116E D845                 	ADD.W   D5, D4		;
001170 D845                 	ADD.W   D5, D4		;
001172 D845                 	ADD.W   D5, D4		;
001174 49EE         1000    	LEA     (#$1000,A6), A4		;
001178 7E07                 	MOVEQ   #$07, D7			;
00117A 3A04                 	MOVE.W  D4,D5 		;
00117C DA45                 	ADD.W   D5, D5		;
00117E 0834 0007    5034    	BTST    #$07, (#$34,A4,D5)			;
001184 6634                 	BNE     #$0034				;
001186 D844                 	ADD.W   D4, D4		;
001188 4245                 	CLR     D5		;
00118A 1A34 4001            	MOVE.B  (#$01,A4,D4),D5 		;
00118E E94D                 	LSL.W   #4, D5		;
001190 8A74         4006    	OR.W    (#$06,A4,D4), D5		;
001194 3A36 5008            	MOVE.W  (#$08,A6,D5),D5 		;
001198 2474 4008            	MOVE.L  (#$08,A4,D4),A2 		;
00119C 0834 0005    4000    	BTST    #$05, (#$00,A4,D4)			;
0011A2 6704                 	BEQ     #$0004				;
0011A4 4EBA         0044    	JSR     (#$0044,PC)			;
0011A8 0834 0006    4000    	BTST    #$06, (#$00,A4,D4)			;
0011AE 6704                 	BEQ     #$0004				;
0011B0 4EBA         00DA    	JSR     (#$00DA,PC)			;
0011B4 E24C                 	LSR.W   #1, D4		;
0011B6 4EBA         1D3E    	JSR     (#$1D3E,PC)			;
0011BA 0644 0020            	ADDI.W  #$0020, D4			;
0011BE 51CF FFBA            	DBRA    D7, #$FFBA			;
0011C2 4E75                 	RTS     					;

0011C4 303C 0700            	MOVE.W  #$00000700,D0 			;
L0011C8:
0011C8 3040                 	MOVE.W  D0,A0 				;for (int i=0;i<8;i++) {
0011CA 1E10                 	MOVE.B  (A0),D7 				;
0011CC 6714                 	BEQ     L0011E2				;  if (*(u8*)(0x700+i*0x10)) {
0011CE 5488                 	ADDQ.L  #$2, A0				;
0011D0 3D40         1834    	MOVE.W  D0,(#$1834,A6) 			;
0011D4 4EBA         03DA    	JSR     (#$03DA,PC)			;    L0015B0(0x700+i*0x10+2);
0011D8 302E 1834            	MOVE.W  (#$1834,A6),D0 			;
0011DC 3040                 	MOVE.W  D0,A0 				;    *(u8*)(0x700+i*0x10) = 0x00;
0011DE 30BC 0000            	MOVE.W  #$00000000,(A0) 		;  }
L0011E2:
0011E2 0600 0010            	ADDI.B  #$0010, D0			;
0011E6 6AE0                 	BPL     L0011C8				;}
0011E8 4E75                 	RTS     					;

0011EA 3034 4018            	MOVE.W  (#$18,A4,D4),D0 		;
0011EE 670C                 	BEQ     #$000C				;
0011F0 5940                 	SUBQ.W  #$4, D0			;
0011F2 6402                 	BCC     #$0002				;
0011F4 4240                 	CLR     D0		;
0011F6 3980         4018    	MOVE.W  D0,(#$18,A4,D4) 		;
0011FA 4E75                 	RTS     					;
0011FC 3034 401C            	MOVE.W  (#$1C,A4,D4),D0 		;
001200 5940                 	SUBQ.W  #$4, D0			;
001202 6A72                 	BPL     #$0072				;
001204 3400                 	MOVE.W  D0,D2 		;
001206 D074         401A    	ADD.W   (#$1A,A4,D4), D0		;
00120A 3980         401C    	MOVE.W  D0,(#$1C,A4,D4) 		;
00120E 7200                 	MOVEQ   #$00, D1			;
001210 3034 401E            	MOVE.W  (#$1E,A4,D4),D0 		;
001214 6712                 	BEQ     #$0012				;
001216 5340                 	SUBQ.W  #$1, D0			;
001218 3980         401E    	MOVE.W  D0,(#$1E,A4,D4) 		;
00121C 2234 4010            	MOVE.L  (#$10,A4,D4),D1 		;
001220 4481                 	NEG     D1		;
001222 2981         4010    	MOVE.L  D1,(#$10,A4,D4) 		;
001226 4481                 	NEG     D1		;
001228 2C34 4014            	MOVE.L  (#$14,A4,D4),D6 		;
00122C 2034 400C            	MOVE.L  (#$0C,A4,D4),D0 		;
001230 5842                 	ADDQ.W  #$4, D2			;
001232 0242 0003            	ANDI.W  #$0003, D2			;
001236 D442                 	ADD.W   D2, D2		;
001238 4EFB         2002    	JMP     (#$02,PC,D2)			;
00123C 6022                 	BRA     #$0022				;
00123E 6018                 	BRA     #$0018				;
001240 600C                 	BRA     #$000C				;
001242 D086                 	ADD.L   D6, D0		;
001244 D086                 	ADD.L   D6, D0		;
001246 D086                 	ADD.L   D6, D0		;
001248 DC81                 	ADD.L   D1, D6		;
00124A 4486                 	NEG     D6		;
00124C 601C                 	BRA     #$001C				;
00124E D086                 	ADD.L   D6, D0		;
001250 D086                 	ADD.L   D6, D0		;
001252 DC81                 	ADD.L   D1, D6		;
001254 4486                 	NEG     D6		;
001256 6010                 	BRA     #$0010				;
001258 D086                 	ADD.L   D6, D0		;
00125A DC81                 	ADD.L   D1, D6		;
00125C 4486                 	NEG     D6		;
00125E 6006                 	BRA     #$0006				;
001260 DC81                 	ADD.L   D1, D6		;
001262 4486                 	NEG     D6		;
001264 D086                 	ADD.L   D6, D0		;
001266 D086                 	ADD.L   D6, D0		;
001268 D086                 	ADD.L   D6, D0		;
00126A D086                 	ADD.L   D6, D0		;
00126C 2986         4014    	MOVE.L  D6,(#$14,A4,D4) 		;
001270 2980         400C    	MOVE.L  D0,(#$0C,A4,D4) 		;
001274 6010                 	BRA     #$0010				;
001276 3980         401C    	MOVE.W  D0,(#$1C,A4,D4) 		;
00127A 2C34 4014            	MOVE.L  (#$14,A4,D4),D6 		;
00127E DC86                 	ADD.L   D6, D6		;
001280 DC86                 	ADD.L   D6, D6		;
001282 DDB4         400C    	ADD.L   (#$0C,A4,D4), D6		;
001286 DA74         400C    	ADD.W   (#$0C,A4,D4), D5		;
00128A 4E75                 	RTS     					;
00128C 4240                 	CLR     D0		;
00128E 1034 402E            	MOVE.B  (#$2E,A4,D4),D0 		;
001292 223C 80000000        	MOVE.L  #$80000000,D1 		;
001298 0240 0007            	ANDI.W  #$0007, D0			;
00129C D040                 	ADD.W   D0, D0		;
00129E D040                 	ADD.W   D0, D0		;
0012A0 4EFB         0002    	JMP     (#$02,PC,D0)			;
0012A4 4E75                 	RTS     					;
0012A6 4E75                 	RTS     					;
0012A8 6000 001A            	BRA     #$001A				;
0012AC 6000 0024            	BRA     #$0024				;
0012B0 6000 0028            	BRA     #$0028				;
0012B4 6000 002C            	BRA     #$002C				;
0012B8 6000 0088            	BRA     #$0088				;
0012BC 6000 008C            	BRA     #$008C				;
0012C0 6000 0080            	BRA     #$0080				;
0012C4 5974         402C    	SUBQ.W  #$4, (#$2C,A4,D4)			;
0012C8 647A                 	BCC     #$007A				;
0012CA 2274 4030            	MOVE.L  (#$30,A4,D4),A1 		;
0012CE 5449                 	ADDQ.W  #$2, A1			;
0012D0 603C                 	BRA     #$003C				;
0012D2 2274 4030            	MOVE.L  (#$30,A4,D4),A1 		;
0012D6 5849                 	ADDQ.W  #$4, A1			;
0012D8 600E                 	BRA     #$000E				;
0012DA 2274 4030            	MOVE.L  (#$30,A4,D4),A1 		;
0012DE 5C49                 	ADDQ.W  #$6, A1			;
0012E0 6006                 	BRA     #$0006				;
0012E2 2274 4030            	MOVE.L  (#$30,A4,D4),A1 		;
0012E6 5049                 	ADDQ.W  #$0, A1			;
0012E8 2034 4020            	MOVE.L  (#$20,A4,D4),D0 		;
0012EC 2434 4028            	MOVE.L  (#$28,A4,D4),D2 		;
0012F0 D081                 	ADD.L   D1, D0		;
0012F2 D481                 	ADD.L   D1, D2		;
0012F4 2C34 4024            	MOVE.L  (#$24,A4,D4),D6 		;
0012F8 6A08                 	BPL     #$0008				;
0012FA D086                 	ADD.L   D6, D0		;
0012FC B480                 	CMP.L   D0, D2		;
0012FE 653A                 	BCS     #$003A				;
001300 6006                 	BRA     #$0006				;
001302 D086                 	ADD.L   D6, D0		;
001304 B082                 	CMP.L   D2, D0		;
001306 6532                 	BCS     #$0032				;
001308 9481                 	SUB.L   D1, D2		;
00130A 2982         4020    	MOVE.L  D2,(#$20,A4,D4) 		;
00130E 5234         402E    	ADDQ.B  #$1, (#$2E,A4,D4)			;
001312 1019                 	MOVE.B  (A1)+,D0 		;
001314 6606                 	BNE     #$0006				;
001316 1019                 	MOVE.B  (A1)+,D0 		;
001318 6700 FF72            	BEQ     #$FF72				;
00131C 4EBA         277E    	JSR     (#$277E,PC)			;
001320 4840                 	SWAP    D0		;
001322 4240                 	CLR     D0		;
001324 E880                 	ASR.L   #4, D0		;
001326 2980         4024    	MOVE.L  D0,(#$24,A4,D4) 		;
00132A 1011                 	MOVE.B  (A1),D0 		;
00132C 4EBA         298C    	JSR     (#$298C,PC)			;
001330 4840                 	SWAP    D0		;
001332 4240                 	CLR     D0		;
001334 2980         4028    	MOVE.L  D0,(#$28,A4,D4) 		;
001338 600A                 	BRA     #$000A				;
00133A 9081                 	SUB.L   D1, D0		;
00133C 2980         4020    	MOVE.L  D0,(#$20,A4,D4) 		;
001340 6002                 	BRA     #$0002				;
001342 4E71                 	NOP     					;
001344 DA74         4020    	ADD.W   (#$20,A4,D4), D5		;
001348 4E75                 	RTS     					;
00134A 2034 4020            	MOVE.L  (#$20,A4,D4),D0 		;
00134E 2434 4028            	MOVE.L  (#$28,A4,D4),D2 		;
001352 D081                 	ADD.L   D1, D0		;
001354 D481                 	ADD.L   D1, D2		;
001356 2C34 4024            	MOVE.L  (#$24,A4,D4),D6 		;
00135A 6A08                 	BPL     #$0008				;
00135C D086                 	ADD.L   D6, D0		;
00135E B480                 	CMP.L   D0, D2		;
001360 6514                 	BCS     #$0014				;
001362 6006                 	BRA     #$0006				;
001364 D086                 	ADD.L   D6, D0		;
001366 B082                 	CMP.L   D2, D0		;
001368 650C                 	BCS     #$000C				;
00136A 9481                 	SUB.L   D1, D2		;
00136C 2982         4020    	MOVE.L  D2,(#$20,A4,D4) 		;
001370 5234         402E    	ADDQ.B  #$1, (#$2E,A4,D4)			;
001374 6006                 	BRA     #$0006				;
001376 9081                 	SUB.L   D1, D0		;
001378 2980         4020    	MOVE.L  D0,(#$20,A4,D4) 		;
00137C DA74         4020    	ADD.W   (#$20,A4,D4), D5		;
001380 4E75                 	RTS     					;
001382 48E7 FFFE            	MOVEM.L  FFFE, -(A7)		;
001386 4BF9         00100000	LEA     $00100000.L, A5		;
00138C 302D 0420            	MOVE.W  (#$0420,A5),D0 		;
001390 0240 0080            	ANDI.W  #$0080, D0			;
001394 671E                 	BEQ     #$001E				;
001396 3B7C 01D4    041A    	MOVE.W  #$000001D4,(#$041A,A5) 		;
00139C 3B7C 0080    0422    	MOVE.W  #$00000080,(#$0422,A5) 		;
0013A2 4DF8         6000    	LEA     $6000.W, A6		;
0013A6 066E 00A0    181A    	ADDI.W  #$181A, (#$0422,A6)			;
0013AC 4DEE         1F00    	LEA     (#$1F00,A6), A6		;
0013B0 4EBA         2B64    	JSR     (#$2B64,PC)			;
0013B4 4CDF 7FFF            	MOVEM.L  (A7)+, 7FFF		;
0013B8 4E73                 	RTE     					;
0013BA 302E 1848            	MOVE.W  (#$1848,A6),D0 		;
0013BE 206E 184C            	MOVE.L  (#$184C,A6),A0 		;
0013C2 2248                 	MOVE.L  A0,A1 		;
0013C4 D2E8         0002    	ADDA.W  (#$0002,A0), A1		;
0013C8 D0E8         0000    	ADDA.W  (#$0000,A0), A0		;
0013CC D040                 	ADD.W   D0, D0		;
0013CE D0C0                 	ADDA.W  D0, A0		;
0013D0 E748                 	LSL.W   #3, D0		;
0013D2 D0C0                 	ADDA.W  D0, A0		;
0013D4 B1C9                 	CMPA.L  A1, A0		;
0013D6 6400 015A            	BCC     #$015A				;
0013DA 43EE         186C    	LEA     (#$186C,A6), A1		;
0013DE 45EE         187E    	LEA     (#$187E,A6), A2		;
0013E2 7E08                 	MOVEQ   #$08, D7			;
0013E4 3018                 	MOVE.W  (A0)+,D0 		;
0013E6 32C0                 	MOVE.W  D0,(A1)+ 		;
0013E8 34C0                 	MOVE.W  D0,(A2)+ 		;
0013EA 51CF FFF8            	DBRA    D7, #$FFF8			;
0013EE 4E75                 	RTS     					;
0013F0 41EE         187E    	LEA     (#$187E,A6), A0		;
0013F4 182E 1831            	MOVE.B  (#$1831,A6),D4 		;
0013F8 6B12                 	BMI     #$0012				;
0013FA 4244                 	CLR     D4		;
0013FC 7E11                 	MOVEQ   #$11, D7			;
0013FE 1B98         4017    	MOVE.B  (A0)+,(#$17,A5,D4) 		;
001402 0644 0020            	ADDI.W  #$0020, D4			;
001406 51CF FFF6            	DBRA    D7, #$FFF6			;
00140A 4E75                 	RTS     					;
00140C 4244                 	CLR     D4		;
00140E 7E11                 	MOVEQ   #$11, D7			;
001410 1018                 	MOVE.B  (A0)+,D0 		;
001412 0200 00E0            	ANDI.B  #$00E0, D0			;
001416 1B80         4017    	MOVE.B  D0,(#$17,A5,D4) 		;
00141A 0644 0020            	ADDI.W  #$0020, D4			;
00141E 51CF FFF0            	DBRA    D7, #$FFF0			;
001422 4E75                 	RTS     					;
001424 41F9         0000A000	LEA     $0000A000.L, A0		;
00142A 43F9         0000B000	LEA     $0000B000.L, A1		;
001430 0240 00FF            	ANDI.W  #$00FF, D0			;
001434 6700 001A            	BEQ     #$001A				;
001438 5340                 	SUBQ.W  #$1, D0			;
00143A 1210                 	MOVE.B  (A0),D1 		;
00143C 6B0C                 	BMI     #$000C				;
00143E 41E8         0008    	LEA     (#$0008,A0), A0		;
001442 B3C8                 	CMPA.L  A0, A1		;
001444 6500 00E6            	BCS     #$00E6				;
001448 60F0                 	BRA     #$FFF0				;
00144A 5288                 	ADDQ.L  #$1, A0			;
00144C 51C8 FFEC            	DBRA    D0, #$FFEC			;
001450 45F8         0500    	LEA     $0500.W, A2		;
001454 7E1F                 	MOVEQ   #$1F, D7			;
001456 14D8                 	MOVE.B  (A0)+,(A2)+ 		;
001458 14D8                 	MOVE.B  (A0)+,(A2)+ 		;
00145A 14D8                 	MOVE.B  (A0)+,(A2)+ 		;
00145C 14D8                 	MOVE.B  (A0)+,(A2)+ 		;
00145E 14D8                 	MOVE.B  (A0)+,(A2)+ 		;
001460 14D8                 	MOVE.B  (A0)+,(A2)+ 		;
001462 14D8                 	MOVE.B  (A0)+,(A2)+ 		;
001464 14D8                 	MOVE.B  (A0)+,(A2)+ 		;
001466 51CF FFEE            	DBRA    D7, #$FFEE			;
00146A 41ED         0700    	LEA     (#$0700,A5), A0		;
00146E 3E3C 013F            	MOVE.W  #$0000013F,D7 		;
001472 7000                 	MOVEQ   #$00, D0			;
001474 20C0                 	MOVE.L  D0,(A0)+ 		;
001476 51CF FFFC            	DBRA    D7, #$FFFC			;
00147A 4E75                 	RTS     					;
00147C 41F8         0500    	LEA     $0500.W, A0		;
001480 7E1F                 	MOVEQ   #$1F, D7			;
001482 1410                 	MOVE.B  (A0),D2 		;
001484 6B00 00D6            	BMI     #$00D6				;
001488 1602                 	MOVE.B  D2,D3 		;
00148A 0202 0070            	ANDI.B  #$0070, D2			;
00148E 6608                 	BNE     #$0008				;
001490 0203 000F            	ANDI.B  #$000F, D3			;
001494 B600                 	CMP.B   D0, D3		;
001496 670C                 	BEQ     #$000C				;
001498 41E8         0008    	LEA     (#$0008,A0), A0		;
00149C 51CF FFE4            	DBRA    D7, #$FFE4			;
0014A0 6000 00BA            	BRA     #$00BA				;
0014A4 3418                 	MOVE.W  (A0)+,D2 		;
0014A6 0242 000F            	ANDI.W  #$000F, D2			;
0014AA 4842                 	SWAP    D2		;
0014AC 3410                 	MOVE.W  (A0),D2 		;
0014AE 2D42         184C    	MOVE.L  D2,(#$184C,A6) 		;
0014B2 4E75                 	RTS     					;
0014B4 7201                 	MOVEQ   #$01, D1			;
0014B6 6000 00EA            	BRA     #$00EA				;
0014BA 7227                 	MOVEQ   #$27, D1			;
0014BC 6000 00E4            	BRA     #$00E4				;
0014C0 7209                 	MOVEQ   #$09, D1			;
0014C2 6000 00DE            	BRA     #$00DE				;
0014C6 720A                 	MOVEQ   #$0A, D1			;
0014C8 6000 00D8            	BRA     #$00D8				;
0014CC 720B                 	MOVEQ   #$0B, D1			;
0014CE 6000 00D2            	BRA     #$00D2				;
0014D2 720C                 	MOVEQ   #$0C, D1			;
0014D4 6000 00CC            	BRA     #$00CC				;
0014D8 720D                 	MOVEQ   #$0D, D1			;
0014DA 6000 00C6            	BRA     #$00C6				;
0014DE 720E                 	MOVEQ   #$0E, D1			;
0014E0 6000 00C0            	BRA     #$00C0				;
0014E4 720F                 	MOVEQ   #$0F, D1			;
0014E6 6000 00BA            	BRA     #$00BA				;
0014EA 7210                 	MOVEQ   #$10, D1			;
0014EC 6000 00B4            	BRA     #$00B4				;
0014F0 7211                 	MOVEQ   #$11, D1			;
0014F2 6000 00AE            	BRA     #$00AE				;
0014F6 7212                 	MOVEQ   #$12, D1			;
0014F8 6000 00A8            	BRA     #$00A8				;
0014FC 7213                 	MOVEQ   #$13, D1			;
0014FE 6000 00A2            	BRA     #$00A2				;
001502 7214                 	MOVEQ   #$14, D1			;
001504 6000 009C            	BRA     #$009C				;
001508 7215                 	MOVEQ   #$15, D1			;
00150A 6000 0096            	BRA     #$0096				;
00150E 7216                 	MOVEQ   #$16, D1			;
001510 6000 0090            	BRA     #$0090				;
001514 7217                 	MOVEQ   #$17, D1			;
001516 6000 008A            	BRA     #$008A				;
00151A 7218                 	MOVEQ   #$18, D1			;
00151C 6000 0084            	BRA     #$0084				;
001520 7219                 	MOVEQ   #$19, D1			;
001522 6000 007E            	BRA     #$007E				;
001526 721F                 	MOVEQ   #$1F, D1			;
001528 6000 0078            	BRA     #$0078				;
00152C 721A                 	MOVEQ   #$1A, D1			;
00152E 6000 007A            	BRA     #$007A				;
001532 7202                 	MOVEQ   #$02, D1			;
001534 6000 0074            	BRA     #$0074				;
001538 7203                 	MOVEQ   #$03, D1			;
00153A 6000 006E            	BRA     #$006E				;
00153E 7204                 	MOVEQ   #$04, D1			;
001540 6000 0068            	BRA     #$0068				;
001544 7205                 	MOVEQ   #$05, D1			;
001546 6000 0062            	BRA     #$0062				;
00154A 7206                 	MOVEQ   #$06, D1			;
00154C 6000 005C            	BRA     #$005C				;
001550 7207                 	MOVEQ   #$07, D1			;
001552 6000 0056            	BRA     #$0056				;
001556 7208                 	MOVEQ   #$08, D1			;
001558 6000 0050            	BRA     #$0050				;
00155C 721B                 	MOVEQ   #$1B, D1			;
00155E 6000 004A            	BRA     #$004A				;
001562 721C                 	MOVEQ   #$1C, D1			;
001564 6000 0044            	BRA     #$0044				;
001568 721D                 	MOVEQ   #$1D, D1			;
00156A 6000 003E            	BRA     #$003E				;
00156E 721E                 	MOVEQ   #$1E, D1			;
001570 6000 0038            	BRA     #$0038				;
001574 7220                 	MOVEQ   #$20, D1			;
001576 6000 0032            	BRA     #$0032				;
00157A 7221                 	MOVEQ   #$21, D1			;
00157C 6000 002C            	BRA     #$002C				;
001580 7222                 	MOVEQ   #$22, D1			;
001582 E14C                 	LSL.W   #0, D4		;
001584 8244                 	OR.W    D4, D1		;
001586 6000 0022            	BRA     #$0022				;
00158A 7223                 	MOVEQ   #$23, D1			;
00158C 6000 001C            	BRA     #$001C				;
001590 7224                 	MOVEQ   #$24, D1			;
001592 6000 0016            	BRA     #$0016				;
001596 7225                 	MOVEQ   #$25, D1			;
001598 6000 0010            	BRA     #$0010				;
00159C 7226                 	MOVEQ   #$26, D1			;
00159E 6000 000A            	BRA     #$000A				;
0015A2 31C1         0416    	MOVE.W  D1,$0416.W 		;
0015A6 4EFA         FA58    	JMP     (#$FA58,PC)			;
0015AA 31C1         0416    	MOVE.W  D1,$0416.W 		;
0015AE 4E75                 	RTS     					;

L0015B0:
0015B0 0247 00FF            	ANDI.W  #$00FF, D7			;
0015B4 1E07                 	MOVE.B  D7,D7 				;
0015B6 6A54                 	BPL     #$0054				;
0015B8 0C47 0091            	CMPI.W  #$0091, D7			;
0015BC 646C                 	BCC     #$006C				;
0015BE 0247 000F            	ANDI.W  #$000F, D7			;
0015C2 DE47                 	ADD.W   D7, D7				;
0015C4 DE47                 	ADD.W   D7, D7				;
0015C6 4EBB         7004    	JSR     (#$04,PC,D7)			;
0015CA 605E                 	BRA     #$005E				;
0015CC 4EFA         0172    	JMP     (#$0172,PC)			;
0015D0 4EFA         01B2    	JMP     (#$01B2,PC)			;
0015D4 4EFA         01F2    	JMP     (#$01F2,PC)			;
0015D8 4EFA         01FA    	JMP     (#$01FA,PC)			;
0015DC 4EFA         01FE    	JMP     (#$01FE,PC)			;
0015E0 4EFA         01FC    	JMP     (#$01FC,PC)			;
0015E4 4EFA         0444    	JMP     (#$0444,PC)			;L001A2A()
0015E8 4EFA         0484    	JMP     (#$0484,PC)			;
0015EC 4EFA         049C    	JMP     (#$049C,PC)			;
0015F0 4EFA         04B6    	JMP     (#$04B6,PC)			;
0015F4 4EFA         03AC    	JMP     (#$03AC,PC)			;
0015F8 4EFA         0030    	JMP     (#$0030,PC)			;
0015FC 4EFA         002C    	JMP     (#$002C,PC)			;
001600 4EFA         0028    	JMP     (#$0028,PC)			;
001604 4EFA         0024    	JMP     (#$0024,PC)			;
001608 4EFA         0020    	JMP     (#$0020,PC)			;
00160C 0C47 000D            	CMPI.W  #$000D, D7			;
001610 6418                 	BCC     #$0018				;
001612 DE47                 	ADD.W   D7, D7		;
001614 DE47                 	ADD.W   D7, D7		;
001616 284E                 	MOVE.L  A6,A4 		;
001618 48E7 0006            	MOVEM.L  06, -(A7)		;
00161C 4DEE         1F00    	LEA     (#$1F00,A6), A6		;
001620 4EBB         700E    	JSR     (#$0E,PC,D7)			;
001624 4CDF 6000            	MOVEM.L  (A7)+, 6000		;
001628 4E75                 	RTS     					;
00162A 023C 00FE            	ANDI.B  #$FE, CCR			;
00162E 4E75                 	RTS     					;
001630 4E75                 	RTS     					;
001632 4E71                 	NOP     					;
001634 4EFA         0030    	JMP     (#$0030,PC)			;
001638 4EFA         004C    	JMP     (#$004C,PC)			;
00163C 4EFA         0058    	JMP     (#$0058,PC)			;
001640 4EFA         0060    	JMP     (#$0060,PC)			;
001644 4EFA         0068    	JMP     (#$0068,PC)			;
001648 4EFA         FFE0    	JMP     (#$FFE0,PC)			;
00164C 4EFA         0070    	JMP     (#$0070,PC)			;
001650 4EFA         007C    	JMP     (#$007C,PC)			;
001654 4EFA         0088    	JMP     (#$0088,PC)			;
001658 4EFA         00C2    	JMP     (#$00C2,PC)			;
00165C 4EFA         00C8    	JMP     (#$00C8,PC)			;
001660 4EF9         00001730	JMP     $00001730.L			;
001666 1018                 	MOVE.B  (A0)+,D0 		;
001668 1418                 	MOVE.B  (A0)+,D2 		;
00166A 1618                 	MOVE.B  (A0)+,D3 		;
00166C 1203                 	MOVE.B  D3,D1 		;
00166E 4EBA         05C4    	JSR     (#$05C4,PC)			;
001672 650C                 	BCS     #$000C				;
001674 1601                 	MOVE.B  D1,D3 		;
001676 1218                 	MOVE.B  (A0)+,D1 		;
001678 1418                 	MOVE.B  (A0)+,D2 		;
00167A 204A                 	MOVE.L  A2,A0 		;
00167C 4EBA         27D6    	JSR     (#$27D6,PC)			;
001680 023C 00FE            	ANDI.B  #$FE, CCR			;
001684 4E75                 	RTS     					;
001686 1018                 	MOVE.B  (A0)+,D0 		;
001688 1618                 	MOVE.B  (A0)+,D3 		;
00168A 1618                 	MOVE.B  (A0)+,D3 		;
00168C 4EBA         27D0    	JSR     (#$27D0,PC)			;
001690 023C 00FE            	ANDI.B  #$FE, CCR			;
001694 4E75                 	RTS     					;
001696 1018                 	MOVE.B  (A0)+,D0 		;
001698 4EBA         27CE    	JSR     (#$27CE,PC)			;
00169C 023C 00FE            	ANDI.B  #$FE, CCR			;
0016A0 4E75                 	RTS     					;
0016A2 1018                 	MOVE.B  (A0)+,D0 		;
0016A4 4EBA         27CC    	JSR     (#$27CC,PC)			;
0016A8 023C 00FE            	ANDI.B  #$FE, CCR			;
0016AC 4E75                 	RTS     					;
0016AE 1018                 	MOVE.B  (A0)+,D0 		;
0016B0 1218                 	MOVE.B  (A0)+,D1 		;
0016B2 1418                 	MOVE.B  (A0)+,D2 		;
0016B4 4EBA         27C6    	JSR     (#$27C6,PC)			;
0016B8 023C 00FE            	ANDI.B  #$FE, CCR			;
0016BC 4E75                 	RTS     					;
0016BE 1018                 	MOVE.B  (A0)+,D0 		;
0016C0 1218                 	MOVE.B  (A0)+,D1 		;
0016C2 3418                 	MOVE.W  (A0)+,D2 		;
0016C4 4EBA         28F2    	JSR     (#$28F2,PC)			;
0016C8 023C 00FE            	ANDI.B  #$FE, CCR			;
0016CC 4E75                 	RTS     					;
0016CE 1018                 	MOVE.B  (A0)+,D0 		;
0016D0 0240 00FF            	ANDI.W  #$00FF, D0			;
0016D4 4EBA         FD4E    	JSR     (#$FD4E,PC)			;
0016D8 023C 00FE            	ANDI.B  #$FE, CCR			;
0016DC 4E75                 	RTS     					;
0016DE 4DF8         6000    	LEA     $6000.W, A6		;
0016E2 46FC         2700    	MOVE    #$00002700, SR		;
0016E6 4240                 	CLR     D0		;
0016E8 102E 1840            	MOVE.B  (#$1840,A6),D0 		;
0016EC 1200                 	MOVE.B  D0,D1 		;
0016EE 5801                 	ADDQ.B  #$4, D1			;
0016F0 B22E         1841    	CMP.B   (#$1841,A6), D1		;
0016F4 671C                 	BEQ     #$001C				;
0016F6 582E         1840    	ADDQ.B  #$4, (#$1840,A6)			;
0016FA 4DEE         1900    	LEA     (#$1900,A6), A6		;
0016FE DCC0                 	ADDA.W  D0, A6		;
001700 1CD8                 	MOVE.B  (A0)+,(A6)+ 		;
001702 1CD8                 	MOVE.B  (A0)+,(A6)+ 		;
001704 1CD8                 	MOVE.B  (A0)+,(A6)+ 		;
001706 1C90                 	MOVE.B  (A0),(A6) 		;
001708 46FC         2000    	MOVE    #$00002000, SR		;
00170C 023C 00FE            	ANDI.B  #$FE, CCR			;
001710 4E75                 	RTS     					;
001712 46FC         2000    	MOVE    #$00002000, SR		;
001716 003C 0001            	ORI.B   #$01, CCR		;
00171A 4E75                 	RTS     					;
00171C 4EBA         287A    	JSR     (#$287A,PC)			;
001720 023C 00FE            	ANDI.B  #$FE, CCR			;
001724 4E75                 	RTS     					;
001726 4EBA         287E    	JSR     (#$287E,PC)			;
00172A 023C 00FE            	ANDI.B  #$FE, CCR			;
00172E 4E75                 	RTS     					;
001730 1018                 	MOVE.B  (A0)+,D0 		;
001732 1218                 	MOVE.B  (A0)+,D1 		;
001734 1418                 	MOVE.B  (A0)+,D2 		;
001736 4EBA         287C    	JSR     (#$287C,PC)			;
00173A 023C 00FE            	ANDI.B  #$FE, CCR			;
00173E 4E75                 	RTS     					;
001740 1018                 	MOVE.B  (A0)+,D0 		;
001742 0200 00E0            	ANDI.B  #$00E0, D0			;
001746 142E 188E            	MOVE.B  (#$188E,A6),D2 		;
00174A 0202 001F            	ANDI.B  #$001F, D2			;
00174E 8002                 	OR.B    D2, D0		;
001750 122E 1831            	MOVE.B  (#$1831,A6),D1 		;
001754 6A04                 	BPL     #$0004				;
001756 0200 00E0            	ANDI.B  #$00E0, D0			;
00175A 1D40         188E    	MOVE.B  D0,(#$188E,A6) 		;
00175E 1B40         0217    	MOVE.B  D0,(#$0217,A5) 		;
001762 1018                 	MOVE.B  (A0)+,D0 		;
001764 0200 00E0            	ANDI.B  #$00E0, D0			;
001768 142E 188F            	MOVE.B  (#$188F,A6),D2 		;
00176C 0202 001F            	ANDI.B  #$001F, D2			;
001770 8002                 	OR.B    D2, D0		;
001772 1201                 	MOVE.B  D1,D1 		;
001774 6A04                 	BPL     #$0004				;
001776 0200 00E0            	ANDI.B  #$00E0, D0			;
00177A 1D40         188F    	MOVE.B  D0,(#$188F,A6) 		;
00177E 1B40         0237    	MOVE.B  D0,(#$0237,A5) 		;
001782 4E75                 	RTS     					;
001784 1018                 	MOVE.B  (A0)+,D0 		;
001786 0200 001F            	ANDI.B  #$001F, D0			;
00178A 142E 188E            	MOVE.B  (#$188E,A6),D2 		;
00178E 0202 00E0            	ANDI.B  #$00E0, D2			;
001792 8002                 	OR.B    D2, D0		;
001794 122E 1831            	MOVE.B  (#$1831,A6),D1 		;
001798 6A04                 	BPL     #$0004				;
00179A 0200 00E0            	ANDI.B  #$00E0, D0			;
00179E 1D40         188E    	MOVE.B  D0,(#$188E,A6) 		;
0017A2 1B40         0217    	MOVE.B  D0,(#$0217,A5) 		;
0017A6 1018                 	MOVE.B  (A0)+,D0 		;
0017A8 0200 001F            	ANDI.B  #$001F, D0			;
0017AC 142E 188F            	MOVE.B  (#$188F,A6),D2 		;
0017B0 0202 00E0            	ANDI.B  #$00E0, D2			;
0017B4 8002                 	OR.B    D2, D0		;
0017B6 1201                 	MOVE.B  D1,D1 		;
0017B8 6A04                 	BPL     #$0004				;
0017BA 0200 00E0            	ANDI.B  #$00E0, D0			;
0017BE 1D40         188F    	MOVE.B  D0,(#$188F,A6) 		;
0017C2 1B40         0237    	MOVE.B  D0,(#$0237,A5) 		;
0017C6 4E75                 	RTS     					;
0017C8 1018                 	MOVE.B  (A0)+,D0 		;
0017CA 0200 000F            	ANDI.B  #$000F, D0			;
0017CE 1B40         0401    	MOVE.B  D0,(#$0401,A5) 		;
0017D2 4E75                 	RTS     					;
0017D4 4241                 	CLR     D1		;
0017D6 1618                 	MOVE.B  (A0)+,D3 		;
0017D8 4EFA         109C    	JMP     (#$109C,PC)			;
0017DC 4E75                 	RTS     					;
0017DE 47EE         1890    	LEA     (#$1890,A6), A3		;
0017E2 45EE         1000    	LEA     (#$1000,A6), A2		;
0017E6 1E28 0000            	MOVE.B  (#$0000,A0),D7 		;
0017EA 6A00 00FC            	BPL     #$00FC				;
0017EE 0247 0007            	ANDI.W  #$0007, D7			;
0017F2 DE47                 	ADD.W   D7, D7		;
0017F4 1833 7000            	MOVE.B  (#$00,A3,D7),D4 		;
0017F8 08F3 0007    7000    	BSET    #$07, (#$00,A3,D7)			;
0017FE 0244 001F            	ANDI.W  #$001F, D4			;
001802 ED4C                 	LSL.W   #6, D4		;
001804 1A33 7001            	MOVE.B  (#$01,A3,D7),D5 		;
001808 08F3 0007    7001    	BSET    #$07, (#$01,A3,D7)			;
00180E 0245 001F            	ANDI.W  #$001F, D5			;
001812 ED4D                 	LSL.W   #6, D5		;
001814 1028 0000            	MOVE.B  (#$0000,A0),D0 		;
001818 1E00                 	MOVE.B  D0,D7 		;
00181A 0240 0007            	ANDI.W  #$0007, D0			;
00181E 0000 0080            	ORI.B   #$0080, D0 			;
001822 1580         4034    	MOVE.B  D0,(#$34,A2,D4) 		;
001826 1580         5034    	MOVE.B  D0,(#$34,A2,D5) 		;
00182A E24C                 	LSR.W   #1, D4		;
00182C E24D                 	LSR.W   #1, D5		;
00182E 1BBC 0010    4000    	MOVE.B  #$00000010,(#$00,A5,D4) 		;
001834 1BBC 0010    5000    	MOVE.B  #$00000010,(#$00,A5,D5) 		;
00183A 0247 0010            	ANDI.W  #$0010, D7			;
00183E 0047 0020            	ORI.W   #$0020, D7 			;
001842 4847                 	SWAP    D7		;
001844 4247                 	CLR     D7		;
001846 7000                 	MOVEQ   #$00, D0			;
001848 3B80         4004    	MOVE.W  D0,(#$04,A5,D4) 		;
00184C 3B80         5004    	MOVE.W  D0,(#$04,A5,D5) 		;
001850 3028 0002            	MOVE.W  (#$0002,A0),D0 		;
001854 E988                 	LSL.L   #4, D0		;
001856 8087                 	OR.L    D7, D0		;
001858 2B80         4000    	MOVE.L  D0,(#$00,A5,D4) 		;
00185C 7200                 	MOVEQ   #$00, D1			;
00185E 2B81         400C    	MOVE.L  D1,(#$0C,A5,D4) 		;
001862 2B81         500C    	MOVE.L  D1,(#$0C,A5,D5) 		;
001866 3B81         4012    	MOVE.W  D1,(#$12,A5,D4) 		;
00186A 3B81         5012    	MOVE.W  D1,(#$12,A5,D5) 		;
00186E 3228 0004            	MOVE.W  (#$0004,A0),D1 		;
001872 5341                 	SUBQ.W  #$1, D1			;
001874 3B81         4006    	MOVE.W  D1,(#$06,A5,D4) 		;
001878 3B81         5006    	MOVE.W  D1,(#$06,A5,D5) 		;
00187C 5281                 	ADDQ.L  #$1, D1			;
00187E D081                 	ADD.L   D1, D0		;
001880 0807 0014            	BTST    #$00000014, D7			;
001884 6602                 	BNE     #$0002				;
001886 D081                 	ADD.L   D1, D0		;
001888 2B80         5000    	MOVE.L  D0,(#$00,A5,D5) 		;
00188C 1028 0001            	MOVE.B  (#$0001,A0),D0 		;
001890 0200 00E0            	ANDI.B  #$00E0, D0			;
001894 0000 000F            	ORI.B   #$000F, D0 			;
001898 082E 0007    1831    	BTST    #$07, (#$1831,A6)			;
00189E 6704                 	BEQ     #$0004				;
0018A0 0200 00F0            	ANDI.B  #$00F0, D0			;
0018A4 1B80         4016    	MOVE.B  D0,(#$16,A5,D4) 		;
0018A8 0000 0010            	ORI.B   #$0010, D0 			;
0018AC 1B80         5016    	MOVE.B  D0,(#$16,A5,D5) 		;
0018B0 203C 001F001F        	MOVE.L  #$001F001F,D0 		;
0018B6 2B80         4008    	MOVE.L  D0,(#$08,A5,D4) 		;
0018BA 2B80         5008    	MOVE.L  D0,(#$08,A5,D5) 		;
0018BE 1028 0008            	MOVE.B  (#$0008,A0),D0 		;
0018C2 1B80         4015    	MOVE.B  D0,(#$15,A5,D4) 		;
0018C6 1028 0009            	MOVE.B  (#$0009,A0),D0 		;
0018CA 1B80         5015    	MOVE.B  D0,(#$15,A5,D5) 		;
0018CE 3028 0006            	MOVE.W  (#$0006,A0),D0 		;
0018D2 3B80         4010    	MOVE.W  D0,(#$10,A5,D4) 		;
0018D6 3B80         5010    	MOVE.W  D0,(#$10,A5,D5) 		;
0018DA 1BBC 0008    4000    	MOVE.B  #$00000008,(#$00,A5,D4) 		;
0018E0 1BBC 0018    5000    	MOVE.B  #$00000018,(#$00,A5,D5) 		;
0018E6 4E75                 	RTS     					;

L0018E8:										;void(int arg,ptr1,)//ptr1-A3
0018E8 0247 0007            	ANDI.W  #$0007, D7			;
0018EC DE47                 	ADD.W   D7, D7				;
0018EE 1833 7000            	MOVE.B  (#$00,A3,D7),D4 		;u8 sn1 = ptr1[arg*2+0] & 0x1F;
0018F2 08F3 0007    7000    	BSET    #$07, (#$00,A3,D7)		;ptr1[arg*2+0] |= 0x80;
0018F8 0244 001F            	ANDI.W  #$001F, D4			;
0018FC ED4C                 	LSL.W   #6, D4				;
0018FE 1A33 7001            	MOVE.B  (#$01,A3,D7),D5 		;u8 sn2 = ptr1[arg*2+1] & 0x1F;
001902 08B3 0007    7001    	BCLR    #$07, (#$01,A3,D7)		;ptr1[arg*2+1] &= ~0x80;
001908 0245 001F            	ANDI.W  #$001F, D5			;
00190C ED4D                 	LSL.W   #6, D5				;
00190E 1028 0000            	MOVE.B  (#$0000,A0),D0 			;
001912 1E00                 	MOVE.B  D0,D7 				;
001914 0240 0007            	ANDI.W  #$0007, D0			;
001918 0000 0080            	ORI.B   #$0080, D0 			;
00191C 1580         4034    	MOVE.B  D0,(#$34,A2,D4) 		;[sn1].b34 = 0;
001920 1032 5034            	MOVE.B  (#$34,A2,D5),D0 		;
001924 15BC 0000    5034    	MOVE.B  #$00000000,(#$34,A2,D5) 	;[sn2].b34 = 0;
00192A E24C                 	LSR.W   #1, D4				;
00192C E24D                 	LSR.W   #1, D5				;
00192E 1BBC 0010    4000    	MOVE.B  #$00000010,(#$00,A5,D4) 	;SCSP.SLOT[sn1].SCR0.H = 0x10;
001934 1BBC 0010    5000    	MOVE.B  #$00000010,(#$00,A5,D5) 	;SCSP.SLOT[sn2].SCR0.H = 0x10;
00193A 0247 0010            	ANDI.W  #$0010, D7			;
00193E 0047 0020            	ORI.W   #$0020, D7 			;
001942 4847                 	SWAP    D7					;
001944 4247                 	CLR     D7					;
001946 7000                 	MOVEQ   #$00, D0				;
001948 3B80         4004    	MOVE.W  D0,(#$04,A5,D4) 		;
00194C 3028 0002            	MOVE.W  (#$0002,A0),D0 			;
001950 E988                 	LSL.L   #4, D0				;
001952 8087                 	OR.L    D7, D0				;
001954 2B80         4000    	MOVE.L  D0,(#$00,A5,D4) 		;
001958 7200                 	MOVEQ   #$00, D1				;
00195A 2B81         400C    	MOVE.L  D1,(#$0C,A5,D4) 		;
00195E 3B81         4012    	MOVE.W  D1,(#$12,A5,D4) 		;
001962 3228 0004            	MOVE.W  (#$0004,A0),D1 			;
001966 5341                 	SUBQ.W  #$1, D1				;
001968 3B81         4006    	MOVE.W  D1,(#$06,A5,D4) 		;
00196C 1028 0001            	MOVE.B  (#$0001,A0),D0 			;
001970 082E 0007    1831    	BTST    #$07, (#$1831,A6)		;
001976 6704                 	BEQ     #$0004				;
001978 0200 00F0            	ANDI.B  #$00F0, D0			;
00197C 1B80         4016    	MOVE.B  D0,(#$16,A5,D4) 		;
001980 203C 001F001F        	MOVE.L  #$001F001F,D0 			;
001986 2B80         4008    	MOVE.L  D0,(#$08,A5,D4) 		;
00198A 1028 0008            	MOVE.B  (#$0008,A0),D0 			;
00198E 1B80         4015    	MOVE.B  D0,(#$15,A5,D4) 		;
001992 3028 0006            	MOVE.W  (#$0006,A0),D0 			;
001996 3B80         4010    	MOVE.W  D0,(#$10,A5,D4) 		;
00199A 1BBC 0018    4000    	MOVE.B  #$00000018,(#$00,A5,D4) 	;
0019A0 4E75                 	RTS     					;

0019A2 47EE         1890    	LEA     (#$1890,A6), A3		;
0019A6 1E28 0000            	MOVE.B  (#$0000,A0),D7 		;
0019AA 0247 0007            	ANDI.W  #$0007, D7			;
0019AE DE47                 	ADD.W   D7, D7		;
0019B0 1833 7000            	MOVE.B  (#$00,A3,D7),D4 		;
0019B4 6A4A                 	BPL     #$004A				;
0019B6 1A33 7001            	MOVE.B  (#$01,A3,D7),D5 		;
0019BA 6A46                 	BPL     #$0046				;
0019BC 0244 001F            	ANDI.W  #$001F, D4			;
0019C0 0245 001F            	ANDI.W  #$001F, D5			;
0019C4 EB4C                 	LSL.W   #5, D4		;
0019C6 EB4D                 	LSL.W   #5, D5		;
0019C8 1028 0001            	MOVE.B  (#$0001,A0),D0 		;
0019CC 0200 00E0            	ANDI.B  #$00E0, D0			;
0019D0 082E 0007    1831    	BTST    #$07, (#$1831,A6)			;
0019D6 6604                 	BNE     #$0004				;
0019D8 0000 000F            	ORI.B   #$000F, D0 			;
0019DC 1B80         4016    	MOVE.B  D0,(#$16,A5,D4) 		;
0019E0 0000 0010            	ORI.B   #$0010, D0 			;
0019E4 1B80         5016    	MOVE.B  D0,(#$16,A5,D5) 		;
0019E8 3028 0002            	MOVE.W  (#$0002,A0),D0 		;
0019EC 3B80         4010    	MOVE.W  D0,(#$10,A5,D4) 		;
0019F0 3B80         5010    	MOVE.W  D0,(#$10,A5,D5) 		;
0019F4 1BA8 0004    4015    	MOVE.B  (#$0004,A0),(#$15,A5,D4) 		;
0019FA 1BA8 0005    5015    	MOVE.B  (#$0005,A0),(#$15,A5,D5) 		;
001A00 4E75                 	RTS     					;
001A02 0244 001F            	ANDI.W  #$001F, D4			;
001A06 EB4C                 	LSL.W   #5, D4		;
001A08 1028 0001            	MOVE.B  (#$0001,A0),D0 		;
001A0C 082E 0007    1831    	BTST    #$07, (#$1831,A6)			;
001A12 6704                 	BEQ     #$0004				;
001A14 0200 00E0            	ANDI.B  #$00E0, D0			;
001A18 1B80         4016    	MOVE.B  D0,(#$16,A5,D4) 		;
001A1C 3BA8 0002    4010    	MOVE.W  (#$0002,A0),(#$10,A5,D4) 		;
001A22 1BA8 0004    4015    	MOVE.B  (#$0004,A0),(#$15,A5,D4) 		;
001A28 4E75                 	RTS     					;

L001A2A:										;
001A2A 47EE         1890    	LEA     (#$1890,A6), A3			;ptr1 = 
001A2E 45EE         1000    	LEA     (#$1000,A6), A2			;ptr2 =
001A32 1E28 0000            	MOVE.B  (#$0000,A0),D7 			;
001A36 0247 0007            	ANDI.W  #$0007, D7			;int i= 
001A3A DE47                 	ADD.W   D7, D7				;
001A3C 1833 7000            	MOVE.B  (#$00,A3,D7),D4 		;
001A40 6A0A                 	BPL     L001A4C				;if () {
001A42 08B3 0007    7000    	BCLR    #$07, (#$00,A3,D7)		;  ptr1[i*2+0] |= 0x80;
001A48 4EBA         000E    	JSR     (#$000E,PC)			;  L001A58();
L001A4C:										;}
001A4C 1833 7001            	MOVE.B  (#$01,A3,D7),D4 		;
001A50 6A1A                 	BPL     #$001A				;
001A52 08B3 0007    7001    	BCLR    #$07, (#$01,A3,D7)		;ptr1[i*2+1] &= ~0x80;
L001A58:
001A58 0244 001F            	ANDI.W  #$001F, D4			;
001A5C ED4C                 	LSL.W   #6, D4				;u8 sn = ptr1[arg*2+1] & 0x1F;
001A5E 15BC 0000    4034    	MOVE.B  #$00000000,(#$34,A2,D4) 	;ptr2[sn].b34 = 0;
001A64 E24C                 	LSR.W   #1, D4				;
001A66 1BBC 0010    4000    	MOVE.B  #$00000010,(#$00,A5,D4) 	;SCSP.SLOT[sn].SCR0.H = 0x10;
001A6C 4E75                 	RTS     					;

001A6E 1018                 	MOVE.B  (A0)+,D0 				;
001A70 1618                 	MOVE.B  (A0)+,D3 		;
001A72 0243 007F            	ANDI.W  #$007F, D3			;
001A76 3D43         1848    	MOVE.W  D3,(#$1848,A6) 		;
001A7A 0240 007F            	ANDI.W  #$007F, D0			;
001A7E 4EBA         F9FC    	JSR     (#$F9FC,PC)			;
001A82 4EBA         F936    	JSR     (#$F936,PC)			;
001A86 4EFA         F968    	JMP     (#$F968,PC)			;
001A8A 4240                 	CLR     D0		;
001A8C 1018                 	MOVE.B  (A0)+,D0 		;
001A8E 0C40 0012            	CMPI.W  #$0012, D0			;
001A92 6400 0012            	BCC     #$0012				;
001A96 1210                 	MOVE.B  (A0),D1 		;
001A98 43EE         187E    	LEA     (#$187E,A6), A1		;
001A9C 1381         0000    	MOVE.B  D1,(#$00,A1,D0) 		;
001AA0 EB48                 	LSL.W   #5, D0		;
001AA2 1B81         0017    	MOVE.B  D1,(#$17,A5,D0) 		;
001AA6 4E75                 	RTS     					;
001AA8 1018                 	MOVE.B  (A0)+,D0 		;
001AAA 0C00 0008            	CMPI.B  #$0008, D0			;
001AAE 6400 FB7A            	BCC     #$FB7A				;
001AB2 0240 0007            	ANDI.W  #$0007, D0			;
001AB6 D040                 	ADD.W   D0, D0		;
001AB8 D040                 	ADD.W   D0, D0		;
001ABA 4EBB         0006    	JSR     (#$06,PC,D0)			;
001ABE 6000 FB6A            	BRA     #$FB6A				;
001AC2 4EFA         001E    	JMP     (#$001E,PC)			;
001AC6 4EFA         001E    	JMP     (#$001E,PC)			;
001ACA 4EFA         0086    	JMP     (#$0086,PC)			;
001ACE 4EFA         00E8    	JMP     (#$00E8,PC)			;
001AD2 4EFA         00EA    	JMP     (#$00EA,PC)			;
001AD6 4EFA         00EC    	JMP     (#$00EC,PC)			;
001ADA 4EFA         FB4E    	JMP     (#$FB4E,PC)			;
001ADE 4EFA         FB4A    	JMP     (#$FB4A,PC)			;
001AE2 7C06                 	MOVEQ   #$06, D6			;
001AE4 6002                 	BRA     #$0002				;
001AE6 7C0E                 	MOVEQ   #$0E, D6			;
001AE8 46FC         2700    	MOVE    #$00002700, SR		;
001AEC 4BF9         00100000	LEA     $00100000.L, A5		;
001AF2 41ED         0700    	LEA     (#$0700,A5), A0		;
001AF6 3E3C 013F            	MOVE.W  #$0000013F,D7 		;
001AFA 7000                 	MOVEQ   #$00, D0			;
001AFC 20C0                 	MOVE.L  D0,(A0)+ 		;
001AFE 51CF FFFC            	DBRA    D7, #$FFFC			;
001B02 363C 7FFF            	MOVE.W  #$00007FFF,D3 		;
001B06 41F9         00010000	LEA     $00010000.L, A0		;
001B0C 4EBA         0014    	JSR     (#$0014,PC)			;
001B10 6506                 	BCS     #$0006				;
001B12 51CE FFF8            	DBRA    D6, #$FFF8			;
001B16 5243                 	ADDQ.W  #$1, D3			;
001B18 31C3         0418    	MOVE.W  D3,$0418.W 		;
001B1C 46FC         2000    	MOVE    #$00002000, SR		;
001B20 4E75                 	RTS     					;
001B22 223C 55555555        	MOVE.L  #$55555555,D1 		;
001B28 243C AAAAAAAA        	MOVE.L  #$AAAAAAAA,D2 		;
001B2E 3E3C 3FFF            	MOVE.W  #$00003FFF,D7 		;
001B32 2010                 	MOVE.L  (A0),D0 		;
001B34 2081                 	MOVE.L  D1,(A0) 		;
001B36 B290                 	CMP.L   (A0), D1		;
001B38 6612                 	BNE     #$0012				;
001B3A 2082                 	MOVE.L  D2,(A0) 		;
001B3C B490                 	CMP.L   (A0), D2		;
001B3E 660C                 	BNE     #$000C				;
001B40 20C0                 	MOVE.L  D0,(A0)+ 		;
001B42 51CF FFEE            	DBRA    D7, #$FFEE			;
001B46 023C 00FE            	ANDI.B  #$FE, CCR			;
001B4A 4E75                 	RTS     					;
001B4C 003C 0001            	ORI.B   #$01, CCR		;
001B50 4E75                 	RTS     					;
001B52 4BF9         00100000	LEA     $00100000.L, A5		;
001B58 363C 7FFF            	MOVE.W  #$00007FFF,D3 		;
001B5C 102D 0405            	MOVE.B  (#$0405,A5),D0 		;
001B60 102D 0405            	MOVE.B  (#$0405,A5),D0 		;
001B64 102D 0405            	MOVE.B  (#$0405,A5),D0 		;
001B68 102D 0405            	MOVE.B  (#$0405,A5),D0 		;
001B6C 103C 0055            	MOVE.B  #$00000055,D0 		;
001B70 4EBA         001A    	JSR     (#$001A,PC)			;
001B74 650C                 	BCS     #$000C				;
001B76 103C 00AA            	MOVE.B  #$000000AA,D0 		;
001B7A 4EBA         0010    	JSR     (#$0010,PC)			;
001B7E 6502                 	BCS     #$0002				;
001B80 5243                 	ADDQ.W  #$1, D3			;
001B82 31C3         0418    	MOVE.W  D3,$0418.W 		;
001B86 46FC         2000    	MOVE    #$00002000, SR		;
001B8A 4E75                 	RTS     					;
001B8C 1B40         0407    	MOVE.B  D0,(#$0407,A5) 		;
001B90 3E3C 0080            	MOVE.W  #$00000080,D7 		;
001B94 322D 0420            	MOVE.W  (#$0420,A5),D1 		;
001B98 0201 0008            	ANDI.B  #$0008, D1			;
001B9C 6606                 	BNE     #$0006				;
001B9E 51CF FFF4            	DBRA    D7, #$FFF4			;
001BA2 600E                 	BRA     #$000E				;
001BA4 122D 0405            	MOVE.B  (#$0405,A5),D1 		;
001BA8 B200                 	CMP.B   D0, D1		;
001BAA 6606                 	BNE     #$0006				;
001BAC 023C 00FE            	ANDI.B  #$FE, CCR			;
001BB0 4E75                 	RTS     					;
001BB2 003C 0001            	ORI.B   #$01, CCR		;
001BB6 4E75                 	RTS     					;
001BB8 143C 00E0            	MOVE.B  #$000000E0,D2 		;
001BBC 600A                 	BRA     #$000A				;
001BBE 143C 00FF            	MOVE.B  #$000000FF,D2 		;
001BC2 6004                 	BRA     #$0004				;
001BC4 143C 00EF            	MOVE.B  #$000000EF,D2 		;
001BC8 41F9         00001BFC	LEA     $00001BFC.L, A0		;
001BCE 224D                 	MOVE.L  A5,A1 		;
001BD0 22D8                 	MOVE.L  (A0)+,(A1)+ 		;
001BD2 22D8                 	MOVE.L  (A0)+,(A1)+ 		;
001BD4 22D8                 	MOVE.L  (A0)+,(A1)+ 		;
001BD6 22D8                 	MOVE.L  (A0)+,(A1)+ 		;
001BD8 22D8                 	MOVE.L  (A0)+,(A1)+ 		;
001BDA 22D8                 	MOVE.L  (A0)+,(A1)+ 		;
001BDC 1B42         0016    	MOVE.B  D2,(#$0016,A5) 		;
001BE0 1ABC 0018            	MOVE.B  #$00000018,(A5) 		;
001BE4 3E3C 2000            	MOVE.W  #$00002000,D7 		;
001BE8 3C3C 0010            	MOVE.W  #$00000010,D6 		;
001BEC E188                 	LSL.L   #0, D0		;
001BEE 51CE FFFC            	DBRA    D6, #$FFFC			;
001BF2 51CF FFF4            	DBRA    D7, #$FFF4			;
001BF6 1ABC 0010            	MOVE.B  #$00000010,(A5) 		;
001BFA 4E75                 	RTS     					;
001BFC 1020                 	MOVE.B  -(A0),D0 		;
001BFE 1C14                 	MOVE.B  (A4),D6 		;
001C00 0000 000F            	ORI.B   #$000F, D0 			;
001C04 001F 001F            	ORI.B   #$001F, (A7)+ 			;
001C08 0000 0000            	ORI.B   #$0000, D0 			;
001C0C 7000                 	MOVEQ   #$00, D0			;
001C0E 0000 0000            	ORI.B   #$0000, D0 			;
001C12 E000                 	ASR.B   #0, D0		;
001C14 C000                 	AND.B   D0, D0		;
001C16 C000                 	AND.B   D0, D0		;
001C18 C000                 	AND.B   D0, D0		;
001C1A C000                 	AND.B   D0, D0		;
001C1C C000                 	AND.B   D0, D0		;
001C1E C000                 	AND.B   D0, D0		;
001C20 C000                 	AND.B   D0, D0		;
001C22 C000                 	AND.B   D0, D0		;
001C24 4000                 	NEGX    D0		;
001C26 4000                 	NEGX    D0		;
001C28 4000                 	NEGX    D0		;
001C2A 4000                 	NEGX    D0		;
001C2C 4000                 	NEGX    D0		;
001C2E 4000                 	NEGX    D0		;
001C30 4000                 	NEGX    D0		;
001C32 4000                 	NEGX    D0		;
001C34 45F8         0500    	LEA     $0500.W, A2		;
001C38 7A1F                 	MOVEQ   #$1F, D5			;
001C3A 1812                 	MOVE.B  (A2),D4 		;
001C3C 6B1C                 	BMI     #$001C				;
001C3E 1C04                 	MOVE.B  D4,D6 		;
001C40 0204 0070            	ANDI.B  #$0070, D4			;
001C44 0C04 0010            	CMPI.B  #$0010, D4			;
001C48 6608                 	BNE     #$0008				;
001C4A 0206 000F            	ANDI.B  #$000F, D6			;
001C4E B406                 	CMP.B   D6, D2		;
001C50 670E                 	BEQ     #$000E				;
001C52 45EA         0008    	LEA     (#$0008,A2), A2		;
001C56 51CD FFE2            	DBRA    D5, #$FFE2			;
001C5A 003C 0001            	ORI.B   #$01, CCR		;
001C5E 4E75                 	RTS     					;
001C60 2412                 	MOVE.L  (A2),D2 		;
001C62 0282 000FFFFF        	ANDI.L  #$000FFFFF, D2			;
001C68 2442                 	MOVE.L  D2,A2 		;
001C6A 0243 00FF            	ANDI.W  #$00FF, D3			;
001C6E B652                 	CMP.W   (A2), D3		;
001C70 64E8                 	BCC     #$FFE8				;
001C72 D643                 	ADD.W   D3, D3		;
001C74 D643                 	ADD.W   D3, D3		;
001C76 D5F2         3002023C	ADDA.L  (#$3C,A2,D0), A2		;
001C7C 00FE 4E755347206E    	ORI.?   #$0000206E, #$0000FFE8 			;
001C84 1804                 	MOVE.B  D4,D4 		;
001C86 45EE         1B00    	LEA     (#$1B00,A6), A2		;
001C8A 102A 0000            	MOVE.B  (#$0000,A2),D0 		;
001C8E 0240 000C            	ANDI.W  #$000C, D0			;
001C92 4EFB         0002    	JMP     (#$02,PC,D0)			;
001C96 6000 0100            	BRA     #$0100				;
001C9A 6000 00FC            	BRA     #$00FC				;
001C9E 6000 00C8            	BRA     #$00C8				;
001CA2 226A 0008            	MOVE.L  (#$0008,A2),A1 		;
001CA6 162A 0006            	MOVE.B  (#$0006,A2),D3 		;
001CAA 0243 0007            	ANDI.W  #$0007, D3			;
001CAE D643                 	ADD.W   D3, D3		;
001CB0 3003                 	MOVE.W  D3,D0 		;
001CB2 D040                 	ADD.W   D0, D0		;
001CB4 4EFB         0002    	JMP     (#$02,PC,D0)			;
001CB8 6000 001E            	BRA     #$001E				;
001CBC 6000 0040            	BRA     #$0040				;
001CC0 6000 0076            	BRA     #$0076				;
001CC4 6000 0072            	BRA     #$0072				;
001CC8 6000 006E            	BRA     #$006E				;
001CCC 6000 0098            	BRA     #$0098				;
001CD0 6000 0064            	BRA     #$0064				;
001CD4 6000 0090            	BRA     #$0090				;
001CD8 1029 0007            	MOVE.B  (#$0007,A1),D0 		;
001CDC E148                 	LSL.W   #0, D0		;
001CDE 3080                 	MOVE.W  D0,(A0) 		;
001CE0 0640 8000            	ADDI.W  #$8000, D0			;
001CE4 3540         0002    	MOVE.W  D0,(#$0002,A2) 		;
001CE8 1029 0006            	MOVE.B  (#$0006,A1),D0 		;
001CEC 4EBA         1D88    	JSR     (#$1D88,PC)			;
001CF0 E448                 	LSR.W   #2, D0		;
001CF2 3540         000C    	MOVE.W  D0,(#$000C,A2) 		;
001CF6 522A         0006    	ADDQ.B  #$1, (#$0006,A2)			;
001CFA 6000 009C            	BRA     #$009C				;
001CFE 516A         000C    	SUBQ.W  #$0, (#$000C,A2)			;
001D02 6400 0094            	BCC     #$0094				;
001D06 382A 0002            	MOVE.W  (#$0002,A2),D4 		;
001D0A 3544         0002    	MOVE.W  D4,(#$0002,A2) 		;
001D0E 0444 8000            	SUBI.W  #$8000, D4			;
001D12 3084                 	MOVE.W  D4,(A0) 		;
001D14 1031 3006            	MOVE.B  (#$06,A1,D3),D0 		;
001D18 4EBA         1D62    	JSR     (#$1D62,PC)			;
001D1C 3540         0004    	MOVE.W  D0,(#$0004,A2) 		;
001D20 1031 3007            	MOVE.B  (#$07,A1,D3),D0 		;
001D24 E148                 	LSL.W   #0, D0		;
001D26 0640 8000            	ADDI.W  #$8000, D0			;
001D2A 3540         000E    	MOVE.W  D0,(#$000E,A2) 		;
001D2E 522A         0006    	ADDQ.B  #$1, (#$0006,A2)			;
001D32 6000 0064            	BRA     #$0064				;
001D36 4E71                 	NOP     					;
001D38 382A 000E            	MOVE.W  (#$000E,A2),D4 		;
001D3C 322A 0002            	MOVE.W  (#$0002,A2),D1 		;
001D40 302A 0004            	MOVE.W  (#$0004,A2),D0 		;
001D44 6B0A                 	BMI     #$000A				;
001D46 D240                 	ADD.W   D0, D1		;
001D48 65C0                 	BCS     #$FFC0				;
001D4A B841                 	CMP.W   D1, D4		;
001D4C 63BC                 	BHI     #$FFBC				;
001D4E 600A                 	BRA     #$000A				;
001D50 4440                 	NEG     D0		;
001D52 9240                 	SUB.W   D0, D1		;
001D54 65B4                 	BCS     #$FFB4				;
001D56 B841                 	CMP.W   D1, D4		;
001D58 64B0                 	BCC     #$FFB0				;
001D5A 3541         0002    	MOVE.W  D1,(#$0002,A2) 		;
001D5E 0441 8000            	SUBI.W  #$8000, D1			;
001D62 3081                 	MOVE.W  D1,(A0) 		;
001D64 6032                 	BRA     #$0032				;
001D66 6030                 	BRA     #$0030				;
001D68 7000                 	MOVEQ   #$00, D0			;
001D6A 302A 0002            	MOVE.W  (#$0002,A2),D0 		;
001D6E D06A         0004    	ADD.W   D0, (#$0004,A2)		;
001D72 3540         0002    	MOVE.W  D0,(#$0002,A2) 		;
001D76 0240 FF00            	ANDI.W  #$FF00, D0			;
001D7A EE48                 	LSR.W   #7, D0		;
001D7C 303B 0028            	MOVE.W  (#$28,PC,D0),D0 		;
001D80 122A 0001            	MOVE.B  (#$0001,A2),D1 		;
001D84 0241 000F            	ANDI.W  #$000F, D1			;
001D88 670C                 	BEQ     #$000C				;
001D8A 0C41 000F            	CMPI.W  #$000F, D1			;
001D8E 6704                 	BEQ     #$0004				;
001D90 E268                 	LSR.W   D1, D0		;
001D92 6002                 	BRA     #$0002				;
001D94 4240                 	CLR     D0		;
001D96 3080                 	MOVE.W  D0,(A0) 		;
001D98 45EA         0010    	LEA     (#$0010,A2), A2		;
001D9C 41E8         0002    	LEA     (#$0002,A0), A0		;
001DA0 51CF FEE8            	DBRA    D7, #$FEE8			;
001DA4 4E75                 	RTS     					;
001DA6 8001                 	OR.B    D1, D0		;
001DA8 800B                 	OR.B    D0, A3		;
001DAA 8028         805A    	OR.B    D0, (#$805A,A0)		;
001DAE 809F                 	OR.L    D0, (A7)+		;
001DB0 80F7         8164    	DIVU    (#$64,A7,A0), D0		;
001DB4 81E3                 	DIVS    -(A3), D0		;
001DB6 8277         831D    	OR.W    (#$1D,A7,A0), D1		;
001DBA 83D7                 	DIVS    (A7), D1		;
001DBC 84A4                 	OR.L    -(A4), D2		;
001DBE 8584                 	OR.L    D4, D2		;
001DC0 8677         877C    	OR.W    (#$7C,A7,A0), D3		;
001DC4 8895                 	OR.L    (A5), D4		;
001DC6 89BF         8AFC    	OR.L    D4, #$00008AFC		;
001DCA 8C4B                 	OR.W    D6, A3		;
001DCC 8DAC         8F1E    	OR.L    D6, (#$8F1E,A4)		;
001DD0 90A2                 	SUB.L   -(A2), D0		;
001DD2 920A                 	SUB.B   D1, A2		;
001DD4 93DD                 	SUBA.L  (A5)+, A1		;
001DD6 9593                 	SUB.L   (A3), D2		;
001DD8 975A                 	SUB.W   D3, (A2)+		;
001DDA 9931         9B18    	SUB.B   (#$18,A1,A1), D4		;
001DDE 9D0F                 	SUBX.B  -(A7), -(A6)		;
001DE0 9F15                 	SUB.B   (A5), D7		;
001DE2 A129                 	???    		;
001DE4 A34D                 	???    		;
001DE6 A57E                 	???    		;
001DE8 A7BE                 	???    		;
001DEA AA0B                 	???    		;
001DEC AC65                 	???    		;
001DEE AECD                 	???    		;
001DF0 B141                 	EOR.W   D1, D0		;
001DF2 B3C1                 	CMPA.L  D1, A1		;
001DF4 B64C                 	CMP.W   A4, D3		;
001DF6 B8E4                 	CMPA.W  -(A4), A4		;
001DF8 BB86                 	EOR.L   D6, D5		;
001DFA BE32         C0E9    	CMP.B   (#$E9,A2,A4), D7		;
001DFE C3AA         C674    	AND.L   D1, (#$C674,A2)		;
001E02 C946                 	EXG    D6, D4		;
001E04 CC21                 	AND.B   -(A1), D6		;
001E06 CF05                 	ABCD.B  D5, D7		;
001E08 D1EF         D4E1D7DA	ADDA.L  (#$D4E1D7DA,A7), A0		;
001E0E DAD8                 	ADDA.W  (A0)+, A5		;
001E10 DDDD                 	ADDA.L  (A5)+, A6		;
001E12 E0E6                 	ASR   -(A6)		;
001E14 E3F5         E707    	LSL   (#$07,A5,A6)		;
001E18 EA1E                 	ROR.B   #5, D6		;
001E1A ED38                 	ROL.B   D6, D0		;
001E1C F055                 	???    		;
001E1E F374                 	???    		;
001E20 F696                 	???    		;
001E22 F9B8                 	???    		;
001E24 FCDC                 	???    		;
001E26 0000 0324            	ORI.B   #$0324, D0 			;
001E2A 0648 096A            	ADDI.W  #$096A, A0			;
001E2E 0C8C 0FAB12C8        	CMPI.L  #$0FAB12C8, A4			;
001E34 15E2         18F9    	MOVE.B  -(A2),(#$18F9,PC) 		;
001E38 1C0B                 	MOVE.B  A3,D6 		;
001E3A 1F1A                 	MOVE.B  (A2)+,-(A7) 		;
001E3C 2223                 	MOVE.L  -(A3),D1 		;
001E3E 2528 2826            	MOVE.L  (#$2826,A0),-(A2) 		;
001E42 2B1F                 	MOVE.L  (A7)+,-(A5) 		;
001E44 2E11                 	MOVE.L  (A1),D7 		;
001E46 30FB 33DF            	MOVE.W  (#$DF,PC,D3),(A0)+ 		;
001E4A 36BA 398C            	MOVE.W  (#$398C,PC),(A3) 		;
001E4E 3C56                 	MOVE.W  (A6),A6 		;
001E50 3F17                 	MOVE.W  (A7),-(A7) 		;
001E52 41CE                 	LEA     A6, A0		;
001E54 447A         471C    	NEG     (#$471C,PC)		;
001E58 49B4         4C3F    	CHK     (#$3F,A4,D4), D4		;
001E5C 4EBF         5133    	JSR     #$00005133			;
001E60 539B                 	SUBQ.L  #$1, (A3)+			;
001E62 55F5         5842    	SCS     (#$42,A5,D5)			;
001E66 5A82                 	ADDQ.L  #$5, D2			;
001E68 5CB3         5ED7    	ADDQ.L  #$6, (#$D7,A3,D5)			;
001E6C 60EB                 	BRA     #$FFEB				;
001E6E 62F1                 	BLS     #$FFF1				;
001E70 64E8                 	BCC     #$FFE8				;
001E72 66CF                 	BNE     #$FFCF				;
001E74 68A6                 	BVC     #$FFA6				;
001E76 6A6D                 	BPL     #$006D				;
001E78 6C23                 	BGE     #$0023				;
001E7A 6DF6                 	BLT     #$FFF6				;
001E7C 6F5E                 	BLE     #$005E				;
001E7E 70E2                 	MOVEQ   #$E2, D0			;
001E80 7254                 	MOVEQ   #$54, D1			;
001E82 73B5                 	MOVEQ   #$B5, D1			;
001E84 7504                 	MOVEQ   #$04, D2			;
001E86 7641                 	MOVEQ   #$41, D3			;
001E88 776B                 	MOVEQ   #$6B, D3			;
001E8A 7884                 	MOVEQ   #$84, D4			;
001E8C 7989                 	MOVEQ   #$89, D4			;
001E8E 7A7C                 	MOVEQ   #$7C, D5			;
001E90 7B5C                 	MOVEQ   #$5C, D5			;
001E92 7C29                 	MOVEQ   #$29, D6			;
001E94 7CE3                 	MOVEQ   #$E3, D6			;
001E96 7D89                 	MOVEQ   #$89, D6			;
001E98 7E1D                 	MOVEQ   #$1D, D7			;
001E9A 7E9C                 	MOVEQ   #$9C, D7			;
001E9C 7F09                 	MOVEQ   #$09, D7			;
001E9E 7F61                 	MOVEQ   #$61, D7			;
001EA0 7FA6                 	MOVEQ   #$A6, D7			;
001EA2 7FD8                 	MOVEQ   #$D8, D7			;
001EA4 7FF5                 	MOVEQ   #$F5, D7			;
001EA6 7FFF                 	MOVEQ   #$FF, D7			;
001EA8 7FF5                 	MOVEQ   #$F5, D7			;
001EAA 7FD8                 	MOVEQ   #$D8, D7			;
001EAC 7FA6                 	MOVEQ   #$A6, D7			;
001EAE 7F61                 	MOVEQ   #$61, D7			;
001EB0 7F09                 	MOVEQ   #$09, D7			;
001EB2 7E9C                 	MOVEQ   #$9C, D7			;
001EB4 7E1D                 	MOVEQ   #$1D, D7			;
001EB6 7D89                 	MOVEQ   #$89, D6			;
001EB8 7CE3                 	MOVEQ   #$E3, D6			;
001EBA 7C29                 	MOVEQ   #$29, D6			;
001EBC 7B5C                 	MOVEQ   #$5C, D5			;
001EBE 7A7C                 	MOVEQ   #$7C, D5			;
001EC0 7989                 	MOVEQ   #$89, D4			;
001EC2 7884                 	MOVEQ   #$84, D4			;
001EC4 776B                 	MOVEQ   #$6B, D3			;
001EC6 7641                 	MOVEQ   #$41, D3			;
001EC8 7504                 	MOVEQ   #$04, D2			;
001ECA 73B5                 	MOVEQ   #$B5, D1			;
001ECC 7254                 	MOVEQ   #$54, D1			;
001ECE 70E2                 	MOVEQ   #$E2, D0			;
001ED0 6F5E                 	BLE     #$005E				;
001ED2 6DF6                 	BLT     #$FFF6				;
001ED4 6C23                 	BGE     #$0023				;
001ED6 6A6D                 	BPL     #$006D				;
001ED8 68A6                 	BVC     #$FFA6				;
001EDA 66CF                 	BNE     #$FFCF				;
001EDC 64E8                 	BCC     #$FFE8				;
001EDE 62F1                 	BLS     #$FFF1				;
001EE0 60EB                 	BRA     #$FFEB				;
001EE2 5ED7                 	SGT     (A7)			;
001EE4 5CB3         5A82    	ADDQ.L  #$6, (#$82,A3,D5)			;
001EE8 5842                 	ADDQ.W  #$4, D2			;
001EEA 55F5         539B    	SCS     (#$9B,A5,D5)			;
001EEE 5133         4EBF    	SUBQ.B  #$0, (#$BF,A3,D4)			;
001EF2 4C3F         49B4    	???     		;
001EF6 471C                 	???     		;
001EF8 447A         41CE    	NEG     (#$41CE,PC)		;
001EFC 3F17                 	MOVE.W  (A7),-(A7) 		;
001EFE 3C56                 	MOVE.W  (A6),A6 		;
001F00 398C         36BA    	MOVE.W  A4,(#$BA,A4,D3) 		;
001F04 33DF         30FB2E11	MOVE.W  (A7)+,$30FB2E11.L 		;
001F0A 2B1F                 	MOVE.L  (A7)+,-(A5) 		;
001F0C 2826                 	MOVE.L  -(A6),D4 		;
001F0E 2528 2223            	MOVE.L  (#$2223,A0),-(A2) 		;
001F12 1F1A                 	MOVE.B  (A2)+,-(A7) 		;
001F14 1C0B                 	MOVE.B  A3,D6 		;
001F16 18F9 15E212C8        	MOVE.B  $15E212C8.L,(A4)+ 		;
001F1C 0FAB         0C8C    	BCLR    D7, (#$30FB2E11,A3) 		;
001F20 096A         0648    	BCHG    D4, (#$30FB2E11,A2) 		;
001F24 0324                 	BTST    D1, -(A4) 		;
001F26 0000 FCDC            	ORI.B   #$FCDC, D0 			;
001F2A F9B8                 	???    		;
001F2C F696                 	???    		;
001F2E F374                 	???    		;
001F30 F055                 	???    		;
001F32 ED38                 	ROL.B   D6, D0		;
001F34 EA1E                 	ROR.B   #5, D6		;
001F36 E707                 	ASL.B   #3, D7		;
001F38 E3F5         E0E6    	LSL   (#$E6,A5,A6)		;
001F3C DDDD                 	ADDA.L  (A5)+, A6		;
001F3E DAD8                 	ADDA.W  (A0)+, A5		;
001F40 D7DA                 	ADDA.L  (A2)+, A3		;
001F42 D4E1                 	ADDA.W  -(A1), A2		;
001F44 D1EF         CF05CC21	ADDA.L  (#$CF05CC21,A7), A0		;
001F4A C946                 	EXG    D6, D4		;
001F4C C674         C3AA    	AND.W   (#$AA,A4,A4), D3		;
001F50 C0E9         BE32    	MULU    (#$BE32,A1), D0		;
001F54 BB86                 	EOR.L   D6, D5		;
001F56 B8E4                 	CMPA.W  -(A4), A4		;
001F58 B64C                 	CMP.W   A4, D3		;
001F5A B3C1                 	CMPA.L  D1, A1		;
001F5C B141                 	EOR.W   D1, D0		;
001F5E AECD                 	???    		;
001F60 AC65                 	???    		;
001F62 AA0B                 	???    		;
001F64 A7BE                 	???    		;
001F66 A57E                 	???    		;
001F68 A34D                 	???    		;
001F6A A129                 	???    		;
001F6C 9F15                 	SUB.B   (A5), D7		;
001F6E 9D0F                 	SUBX.B  -(A7), -(A6)		;
001F70 9B18                 	SUB.B   D5, (A0)+		;
001F72 9931         975A    	SUB.B   (#$5A,A1,A1), D4		;
001F76 9593                 	SUB.L   (A3), D2		;
001F78 93DD                 	SUBA.L  (A5)+, A1		;
001F7A 920A                 	SUB.B   D1, A2		;
001F7C 90A2                 	SUB.L   -(A2), D0		;
001F7E 8F1E                 	OR.B    D7, (A6)+		;
001F80 8DAC         8C4B    	OR.L    D6, (#$8C4B,A4)		;
001F84 8AFC         89BF    	DIVU    #$000089BF, D5		;
001F88 8895                 	OR.L    (A5), D4		;
001F8A 877C         8677    	OR.W    D3, #$00008677		;
001F8E 8584                 	OR.L    D4, D2		;
001F90 84A4                 	OR.L    -(A4), D2		;
001F92 83D7                 	DIVS    (A7), D1		;
001F94 831D                 	OR.B    D1, (A5)+		;
001F96 8277         81E3    	OR.W    (#$E3,A7,A0), D1		;
001F9A 8164                 	OR.W    -(A4), D0		;
001F9C 80F7         809F    	DIVU    (#$9F,A7,A0), D0		;
001FA0 805A                 	OR.W    D0, (A2)+		;
001FA2 8028         800B    	OR.B    D0, (#$800B,A0)		;
001FA6 582E         1841    	ADDQ.B  #$4, (#$1841,A6)			;
001FAA 43EE         1900    	LEA     (#$1900,A6), A1		;
001FAE D2C0                 	ADDA.W  D0, A1		;
001FB0 1019                 	MOVE.B  (A1)+,D0 		;
001FB2 1219                 	MOVE.B  (A1)+,D1 		;
001FB4 1401                 	MOVE.B  D1,D2 		;
001FB6 0242 00E0            	ANDI.W  #$00E0, D2			;
001FBA E94A                 	LSL.W   #4, D2		;
001FBC 3D42         1800    	MOVE.W  D2,(#$1800,A6) 		;
001FC0 0241 001F            	ANDI.W  #$001F, D1			;
001FC4 3401                 	MOVE.W  D1,D2 		;
001FC6 E94A                 	LSL.W   #4, D2		;
001FC8 D46E         1800    	ADD.W   D2, (#$1800,A6)		;
001FCC 3D42         180A    	MOVE.W  D2,(#$180A,A6) 		;
001FD0 3D41         1802    	MOVE.W  D1,(#$1802,A6) 		;
001FD4 1419                 	MOVE.B  (A1)+,D2 		;
001FD6 1611                 	MOVE.B  (A1),D3 		;
001FD8 0240 0007            	ANDI.W  #$0007, D0			;
001FDC E548                 	LSL.W   #2, D0		;
001FDE 4EFB         0002    	JMP     (#$02,PC,D0)			;
001FE2 4EFA         104A    	JMP     (#$104A,PC)			;
001FE6 4EFA         0A36    	JMP     (#$0A36,PC)			;
001FEA 4EFA         F576    	JMP     (#$F576,PC)			;
001FEE 4EFA         003E    	JMP     (#$003E,PC)			;
001FF2 4EFA         000E    	JMP     (#$000E,PC)			;
001FF6 4EFA         F570    	JMP     (#$F570,PC)			;
001FFA 4EFA         0984    	JMP     (#$0984,PC)			;
001FFE 4EFA         F56E    	JMP     (#$F56E,PC)			;
002002 0242 007F            	ANDI.W  #$007F, D2			;
002006 302E 180A            	MOVE.W  (#$180A,A6),D0 		;
00200A 2076 0004            	MOVE.L  (#$04,A6,D0),A0 		;
00200E 363C 0008            	MOVE.W  #$00000008,D3 		;
002012 D642                 	ADD.W   D2, D3		;
002014 D642                 	ADD.W   D2, D3		;
002016 B668         0000    	CMP.W   (#$0000,A0), D3		;
00201A 6400 F53A            	BCC     #$F53A				;
00201E 1D82         0000    	MOVE.B  D2,(#$00,A6,D0) 		;
002022 7600                 	MOVEQ   #$00, D3			;
002024 1D83         0001    	MOVE.B  D3,(#$01,A6,D0) 		;
002028 3D83         0008    	MOVE.W  D3,(#$08,A6,D0) 		;
00202C 4E75                 	RTS     					;
00202E 3802                 	MOVE.W  D2,D4 		;
002030 0242 000F            	ANDI.W  #$000F, D2			;
002034 D442                 	ADD.W   D2, D2		;
002036 D442                 	ADD.W   D2, D2		;
002038 0244 0070            	ANDI.W  #$0070, D4			;
00203C E44C                 	LSR.W   #2, D4		;
00203E 4EFB         4002    	JMP     (#$02,PC,D4)			;
002042 4EFA         001E    	JMP     (#$001E,PC)			;
002046 4EFA         005E    	JMP     (#$005E,PC)			;
00204A 4EFA         009E    	JMP     (#$009E,PC)			;
00204E 4EFA         00DE    	JMP     (#$00DE,PC)			;
002052 4EFA         011E    	JMP     (#$011E,PC)			;
002056 4EFA         015E    	JMP     (#$015E,PC)			;
00205A 4EFA         019E    	JMP     (#$019E,PC)			;
00205E 4EFA         01DE    	JMP     (#$01DE,PC)			;
002062 4EFB         2002    	JMP     (#$02,PC,D2)			;
002066 4EFA         021A    	JMP     (#$021A,PC)			;
00206A 4EFA         0648    	JMP     (#$0648,PC)			;
00206E 4EFA         021A    	JMP     (#$021A,PC)			;
002072 4EFA         021E    	JMP     (#$021E,PC)			;
002076 4EFA         0222    	JMP     (#$0222,PC)			;
00207A 4EFA         0226    	JMP     (#$0226,PC)			;
00207E 4EFA         022A    	JMP     (#$022A,PC)			;
002082 4EFA         06A6    	JMP     (#$06A6,PC)			;
002086 4EFA         022A    	JMP     (#$022A,PC)			;
00208A 4EFA         022E    	JMP     (#$022E,PC)			;
00208E 4EFA         06F2    	JMP     (#$06F2,PC)			;
002092 4EFA         0696    	JMP     (#$0696,PC)			;
002096 4EFA         022A    	JMP     (#$022A,PC)			;
00209A 4EFA         022E    	JMP     (#$022E,PC)			;
00209E 4EFA         0232    	JMP     (#$0232,PC)			;
0020A2 4EFA         0236    	JMP     (#$0236,PC)			;
0020A6 4EFB         2002    	JMP     (#$02,PC,D2)			;
0020AA 4EFA         0734    	JMP     (#$0734,PC)			;
0020AE 4EFA         057A    	JMP     (#$057A,PC)			;
0020B2 4EFA         022E    	JMP     (#$022E,PC)			;
0020B6 4EFA         0232    	JMP     (#$0232,PC)			;
0020BA 4EFA         0236    	JMP     (#$0236,PC)			;
0020BE 4EFA         023A    	JMP     (#$023A,PC)			;
0020C2 4EFA         023E    	JMP     (#$023E,PC)			;
0020C6 4EFA         0242    	JMP     (#$0242,PC)			;
0020CA 4EFA         0246    	JMP     (#$0246,PC)			;
0020CE 4EFA         024A    	JMP     (#$024A,PC)			;
0020D2 4EFA         024E    	JMP     (#$024E,PC)			;
0020D6 4EFA         0252    	JMP     (#$0252,PC)			;
0020DA 4EFA         0256    	JMP     (#$0256,PC)			;
0020DE 4EFA         025A    	JMP     (#$025A,PC)			;
0020E2 4EFA         025E    	JMP     (#$025E,PC)			;
0020E6 4EFA         0262    	JMP     (#$0262,PC)			;
0020EA 4EFB         2002    	JMP     (#$02,PC,D2)			;
0020EE 4EFA         05A4    	JMP     (#$05A4,PC)			;
0020F2 4EFA         025E    	JMP     (#$025E,PC)			;
0020F6 4EFA         0262    	JMP     (#$0262,PC)			;
0020FA 4EFA         0266    	JMP     (#$0266,PC)			;
0020FE 4EFA         026A    	JMP     (#$026A,PC)			;
002102 4EFA         026E    	JMP     (#$026E,PC)			;
002106 4EFA         0272    	JMP     (#$0272,PC)			;
00210A 4EFA         0276    	JMP     (#$0276,PC)			;
00210E 4EFA         027A    	JMP     (#$027A,PC)			;
002112 4EFA         027E    	JMP     (#$027E,PC)			;
002116 4EFA         0282    	JMP     (#$0282,PC)			;
00211A 4EFA         0286    	JMP     (#$0286,PC)			;
00211E 4EFA         028A    	JMP     (#$028A,PC)			;
002122 4EFA         028E    	JMP     (#$028E,PC)			;
002126 4EFA         0292    	JMP     (#$0292,PC)			;
00212A 4EFA         0296    	JMP     (#$0296,PC)			;
00212E 4EFB         2002    	JMP     (#$02,PC,D2)			;
002132 4EFA         0296    	JMP     (#$0296,PC)			;
002136 4EFA         029A    	JMP     (#$029A,PC)			;
00213A 4EFA         029E    	JMP     (#$029E,PC)			;
00213E 4EFA         02A2    	JMP     (#$02A2,PC)			;
002142 4EFA         02A6    	JMP     (#$02A6,PC)			;
002146 4EFA         02AA    	JMP     (#$02AA,PC)			;
00214A 4EFA         02AE    	JMP     (#$02AE,PC)			;
00214E 4EFA         02B2    	JMP     (#$02B2,PC)			;
002152 4EFA         02B6    	JMP     (#$02B6,PC)			;
002156 4EFA         02BA    	JMP     (#$02BA,PC)			;
00215A 4EFA         02BE    	JMP     (#$02BE,PC)			;
00215E 4EFA         02C2    	JMP     (#$02C2,PC)			;
002162 4EFA         02C6    	JMP     (#$02C6,PC)			;
002166 4EFA         02CA    	JMP     (#$02CA,PC)			;
00216A 4EFA         02CE    	JMP     (#$02CE,PC)			;
00216E 4EFA         02D2    	JMP     (#$02D2,PC)			;
002172 4EFB         2002    	JMP     (#$02,PC,D2)			;
002176 4EFA         0686    	JMP     (#$0686,PC)			;
00217A 4EFA         02CE    	JMP     (#$02CE,PC)			;
00217E 4EFA         02D2    	JMP     (#$02D2,PC)			;
002182 4EFA         02D6    	JMP     (#$02D6,PC)			;
002186 4EFA         02DA    	JMP     (#$02DA,PC)			;
00218A 4EFA         02DE    	JMP     (#$02DE,PC)			;
00218E 4EFA         02E2    	JMP     (#$02E2,PC)			;
002192 4EFA         04D6    	JMP     (#$04D6,PC)			;
002196 4EFA         02E2    	JMP     (#$02E2,PC)			;
00219A 4EFA         02E6    	JMP     (#$02E6,PC)			;
00219E 4EFA         02EA    	JMP     (#$02EA,PC)			;
0021A2 4EFA         02EE    	JMP     (#$02EE,PC)			;
0021A6 4EFA         02F2    	JMP     (#$02F2,PC)			;
0021AA 4EFA         02F6    	JMP     (#$02F6,PC)			;
0021AE 4EFA         02FA    	JMP     (#$02FA,PC)			;
0021B2 4EFA         02FE    	JMP     (#$02FE,PC)			;
0021B6 4EFB         2002    	JMP     (#$02,PC,D2)			;
0021BA 4EFA         02FE    	JMP     (#$02FE,PC)			;
0021BE 4EFA         0302    	JMP     (#$0302,PC)			;
0021C2 4EFA         0306    	JMP     (#$0306,PC)			;
0021C6 4EFA         030A    	JMP     (#$030A,PC)			;
0021CA 4EFA         030E    	JMP     (#$030E,PC)			;
0021CE 4EFA         0312    	JMP     (#$0312,PC)			;
0021D2 4EFA         0316    	JMP     (#$0316,PC)			;
0021D6 4EFA         031A    	JMP     (#$031A,PC)			;
0021DA 4EFA         031E    	JMP     (#$031E,PC)			;
0021DE 4EFA         0322    	JMP     (#$0322,PC)			;
0021E2 4EFA         0326    	JMP     (#$0326,PC)			;
0021E6 4EFA         068E    	JMP     (#$068E,PC)			;
0021EA 4EFA         0326    	JMP     (#$0326,PC)			;
0021EE 4EFA         032A    	JMP     (#$032A,PC)			;
0021F2 4EFA         032E    	JMP     (#$032E,PC)			;
0021F6 4EFA         0332    	JMP     (#$0332,PC)			;
0021FA 4EFB         2002    	JMP     (#$02,PC,D2)			;
0021FE 4EFA         0332    	JMP     (#$0332,PC)			;
002202 4EFA         0336    	JMP     (#$0336,PC)			;
002206 4EFA         033A    	JMP     (#$033A,PC)			;
00220A 4EFA         033E    	JMP     (#$033E,PC)			;
00220E 4EFA         0342    	JMP     (#$0342,PC)			;
002212 4EFA         0346    	JMP     (#$0346,PC)			;
002216 4EFA         034A    	JMP     (#$034A,PC)			;
00221A 4EFA         034E    	JMP     (#$034E,PC)			;
00221E 4EFA         0352    	JMP     (#$0352,PC)			;
002222 4EFA         0356    	JMP     (#$0356,PC)			;
002226 4EFA         035A    	JMP     (#$035A,PC)			;
00222A 4EFA         035E    	JMP     (#$035E,PC)			;
00222E 4EFA         0362    	JMP     (#$0362,PC)			;
002232 4EFA         0366    	JMP     (#$0366,PC)			;
002236 4EFA         036A    	JMP     (#$036A,PC)			;
00223A 4EFA         036E    	JMP     (#$036E,PC)			;
00223E 4EFB         2002    	JMP     (#$02,PC,D2)			;
002242 4EFA         036E    	JMP     (#$036E,PC)			;
002246 4EFA         0372    	JMP     (#$0372,PC)			;
00224A 4EFA         0376    	JMP     (#$0376,PC)			;
00224E 4EFA         037A    	JMP     (#$037A,PC)			;
002252 4EFA         037E    	JMP     (#$037E,PC)			;
002256 4EFA         0382    	JMP     (#$0382,PC)			;
00225A 4EFA         0386    	JMP     (#$0386,PC)			;
00225E 4EFA         038A    	JMP     (#$038A,PC)			;
002262 4EFA         038E    	JMP     (#$038E,PC)			;
002266 4EFA         0392    	JMP     (#$0392,PC)			;
00226A 4EFA         0396    	JMP     (#$0396,PC)			;
00226E 4EFA         0480    	JMP     (#$0480,PC)			;
002272 4EFA         0396    	JMP     (#$0396,PC)			;
002276 4EFA         039A    	JMP     (#$039A,PC)			;
00227A 4EFA         039E    	JMP     (#$039E,PC)			;
00227E 4EFA         03A2    	JMP     (#$03A2,PC)			;
002282 183C 0000            	MOVE.B  #$00000000,D4 		;
002286 4EFA         F2F8    	JMP     (#$F2F8,PC)			;
00228A 183C 0002            	MOVE.B  #$00000002,D4 		;
00228E 4EFA         F2F0    	JMP     (#$F2F0,PC)			;
002292 183C 0003            	MOVE.B  #$00000003,D4 		;
002296 4EFA         F2E8    	JMP     (#$F2E8,PC)			;
00229A 183C 0004            	MOVE.B  #$00000004,D4 		;
00229E 4EFA         F2E0    	JMP     (#$F2E0,PC)			;
0022A2 183C 0005            	MOVE.B  #$00000005,D4 		;
0022A6 4EFA         F2D8    	JMP     (#$F2D8,PC)			;
0022AA 183C 0006            	MOVE.B  #$00000006,D4 		;
0022AE 4EFA         F2D0    	JMP     (#$F2D0,PC)			;
0022B2 183C 0008            	MOVE.B  #$00000008,D4 		;
0022B6 4EFA         F2C8    	JMP     (#$F2C8,PC)			;
0022BA 183C 0009            	MOVE.B  #$00000009,D4 		;
0022BE 4EFA         F2C0    	JMP     (#$F2C0,PC)			;
0022C2 183C 000C            	MOVE.B  #$0000000C,D4 		;
0022C6 4EFA         F2B8    	JMP     (#$F2B8,PC)			;
0022CA 183C 000D            	MOVE.B  #$0000000D,D4 		;
0022CE 4EFA         F2B0    	JMP     (#$F2B0,PC)			;
0022D2 183C 000E            	MOVE.B  #$0000000E,D4 		;
0022D6 4EFA         F2A8    	JMP     (#$F2A8,PC)			;
0022DA 183C 000F            	MOVE.B  #$0000000F,D4 		;
0022DE 4EFA         F2A0    	JMP     (#$F2A0,PC)			;
0022E2 183C 0012            	MOVE.B  #$00000012,D4 		;
0022E6 4EFA         F298    	JMP     (#$F298,PC)			;
0022EA 183C 0013            	MOVE.B  #$00000013,D4 		;
0022EE 4EFA         F290    	JMP     (#$F290,PC)			;
0022F2 183C 0014            	MOVE.B  #$00000014,D4 		;
0022F6 4EFA         F288    	JMP     (#$F288,PC)			;
0022FA 183C 0015            	MOVE.B  #$00000015,D4 		;
0022FE 4EFA         F280    	JMP     (#$F280,PC)			;
002302 183C 0016            	MOVE.B  #$00000016,D4 		;
002306 4EFA         F278    	JMP     (#$F278,PC)			;
00230A 183C 0017            	MOVE.B  #$00000017,D4 		;
00230E 4EFA         F270    	JMP     (#$F270,PC)			;
002312 183C 0018            	MOVE.B  #$00000018,D4 		;
002316 4EFA         F268    	JMP     (#$F268,PC)			;
00231A 183C 0019            	MOVE.B  #$00000019,D4 		;
00231E 4EFA         F260    	JMP     (#$F260,PC)			;
002322 183C 001A            	MOVE.B  #$0000001A,D4 		;
002326 4EFA         F258    	JMP     (#$F258,PC)			;
00232A 183C 001B            	MOVE.B  #$0000001B,D4 		;
00232E 4EFA         F250    	JMP     (#$F250,PC)			;
002332 183C 001C            	MOVE.B  #$0000001C,D4 		;
002336 4EFA         F248    	JMP     (#$F248,PC)			;
00233A 183C 001D            	MOVE.B  #$0000001D,D4 		;
00233E 4EFA         F240    	JMP     (#$F240,PC)			;
002342 183C 001E            	MOVE.B  #$0000001E,D4 		;
002346 4EFA         F238    	JMP     (#$F238,PC)			;
00234A 183C 001F            	MOVE.B  #$0000001F,D4 		;
00234E 4EFA         F230    	JMP     (#$F230,PC)			;
002352 183C 0021            	MOVE.B  #$00000021,D4 		;
002356 4EFA         F228    	JMP     (#$F228,PC)			;
00235A 183C 0022            	MOVE.B  #$00000022,D4 		;
00235E 4EFA         F220    	JMP     (#$F220,PC)			;
002362 183C 0023            	MOVE.B  #$00000023,D4 		;
002366 4EFA         F218    	JMP     (#$F218,PC)			;
00236A 183C 0024            	MOVE.B  #$00000024,D4 		;
00236E 4EFA         F210    	JMP     (#$F210,PC)			;
002372 183C 0025            	MOVE.B  #$00000025,D4 		;
002376 4EFA         F208    	JMP     (#$F208,PC)			;
00237A 183C 0026            	MOVE.B  #$00000026,D4 		;
00237E 4EFA         F200    	JMP     (#$F200,PC)			;
002382 183C 0027            	MOVE.B  #$00000027,D4 		;
002386 4EFA         F1F8    	JMP     (#$F1F8,PC)			;
00238A 183C 0028            	MOVE.B  #$00000028,D4 		;
00238E 4EFA         F1F0    	JMP     (#$F1F0,PC)			;
002392 183C 0029            	MOVE.B  #$00000029,D4 		;
002396 4EFA         F1E8    	JMP     (#$F1E8,PC)			;
00239A 183C 002A            	MOVE.B  #$0000002A,D4 		;
00239E 4EFA         F1E0    	JMP     (#$F1E0,PC)			;
0023A2 183C 002B            	MOVE.B  #$0000002B,D4 		;
0023A6 4EFA         F1D8    	JMP     (#$F1D8,PC)			;
0023AA 183C 002C            	MOVE.B  #$0000002C,D4 		;
0023AE 4EFA         F1D0    	JMP     (#$F1D0,PC)			;
0023B2 183C 002D            	MOVE.B  #$0000002D,D4 		;
0023B6 4EFA         F1C8    	JMP     (#$F1C8,PC)			;
0023BA 183C 002E            	MOVE.B  #$0000002E,D4 		;
0023BE 4EFA         F1C0    	JMP     (#$F1C0,PC)			;
0023C2 183C 002F            	MOVE.B  #$0000002F,D4 		;
0023C6 4EFA         F1B8    	JMP     (#$F1B8,PC)			;
0023CA 183C 0030            	MOVE.B  #$00000030,D4 		;
0023CE 4EFA         F1B0    	JMP     (#$F1B0,PC)			;
0023D2 183C 0031            	MOVE.B  #$00000031,D4 		;
0023D6 4EFA         F1A8    	JMP     (#$F1A8,PC)			;
0023DA 183C 0032            	MOVE.B  #$00000032,D4 		;
0023DE 4EFA         F1A0    	JMP     (#$F1A0,PC)			;
0023E2 183C 0033            	MOVE.B  #$00000033,D4 		;
0023E6 4EFA         F198    	JMP     (#$F198,PC)			;
0023EA 183C 0034            	MOVE.B  #$00000034,D4 		;
0023EE 4EFA         F190    	JMP     (#$F190,PC)			;
0023F2 183C 0035            	MOVE.B  #$00000035,D4 		;
0023F6 4EFA         F188    	JMP     (#$F188,PC)			;
0023FA 183C 0036            	MOVE.B  #$00000036,D4 		;
0023FE 4EFA         F180    	JMP     (#$F180,PC)			;
002402 183C 0037            	MOVE.B  #$00000037,D4 		;
002406 4EFA         F178    	JMP     (#$F178,PC)			;
00240A 183C 0038            	MOVE.B  #$00000038,D4 		;
00240E 4EFA         F170    	JMP     (#$F170,PC)			;
002412 183C 0039            	MOVE.B  #$00000039,D4 		;
002416 4EFA         F168    	JMP     (#$F168,PC)			;
00241A 183C 003A            	MOVE.B  #$0000003A,D4 		;
00241E 4EFA         F160    	JMP     (#$F160,PC)			;
002422 183C 003B            	MOVE.B  #$0000003B,D4 		;
002426 4EFA         F158    	JMP     (#$F158,PC)			;
00242A 183C 003C            	MOVE.B  #$0000003C,D4 		;
00242E 4EFA         F150    	JMP     (#$F150,PC)			;
002432 183C 003D            	MOVE.B  #$0000003D,D4 		;
002436 4EFA         F148    	JMP     (#$F148,PC)			;
00243A 183C 003E            	MOVE.B  #$0000003E,D4 		;
00243E 4EFA         F140    	JMP     (#$F140,PC)			;
002442 183C 003F            	MOVE.B  #$0000003F,D4 		;
002446 4EFA         F138    	JMP     (#$F138,PC)			;
00244A 183C 0041            	MOVE.B  #$00000041,D4 		;
00244E 4EFA         F130    	JMP     (#$F130,PC)			;
002452 183C 0042            	MOVE.B  #$00000042,D4 		;
002456 4EFA         F128    	JMP     (#$F128,PC)			;
00245A 183C 0043            	MOVE.B  #$00000043,D4 		;
00245E 4EFA         F120    	JMP     (#$F120,PC)			;
002462 183C 0044            	MOVE.B  #$00000044,D4 		;
002466 4EFA         F118    	JMP     (#$F118,PC)			;
00246A 183C 0045            	MOVE.B  #$00000045,D4 		;
00246E 4EFA         F110    	JMP     (#$F110,PC)			;
002472 183C 0046            	MOVE.B  #$00000046,D4 		;
002476 4EFA         F108    	JMP     (#$F108,PC)			;
00247A 183C 0048            	MOVE.B  #$00000048,D4 		;
00247E 4EFA         F100    	JMP     (#$F100,PC)			;
002482 183C 0049            	MOVE.B  #$00000049,D4 		;
002486 4EFA         F0F8    	JMP     (#$F0F8,PC)			;
00248A 183C 004A            	MOVE.B  #$0000004A,D4 		;
00248E 4EFA         F0F0    	JMP     (#$F0F0,PC)			;
002492 183C 004B            	MOVE.B  #$0000004B,D4 		;
002496 4EFA         F0E8    	JMP     (#$F0E8,PC)			;
00249A 183C 004C            	MOVE.B  #$0000004C,D4 		;
00249E 4EFA         F0E0    	JMP     (#$F0E0,PC)			;
0024A2 183C 004D            	MOVE.B  #$0000004D,D4 		;
0024A6 4EFA         F0D8    	JMP     (#$F0D8,PC)			;
0024AA 183C 004E            	MOVE.B  #$0000004E,D4 		;
0024AE 4EFA         F0D0    	JMP     (#$F0D0,PC)			;
0024B2 183C 004F            	MOVE.B  #$0000004F,D4 		;
0024B6 4EFA         F0C8    	JMP     (#$F0C8,PC)			;
0024BA 183C 0050            	MOVE.B  #$00000050,D4 		;
0024BE 4EFA         F0C0    	JMP     (#$F0C0,PC)			;
0024C2 183C 0051            	MOVE.B  #$00000051,D4 		;
0024C6 4EFA         F0B8    	JMP     (#$F0B8,PC)			;
0024CA 183C 0052            	MOVE.B  #$00000052,D4 		;
0024CE 4EFA         F0B0    	JMP     (#$F0B0,PC)			;
0024D2 183C 0053            	MOVE.B  #$00000053,D4 		;
0024D6 4EFA         F0A8    	JMP     (#$F0A8,PC)			;
0024DA 183C 0054            	MOVE.B  #$00000054,D4 		;
0024DE 4EFA         F0A0    	JMP     (#$F0A0,PC)			;
0024E2 183C 0055            	MOVE.B  #$00000055,D4 		;
0024E6 4EFA         F098    	JMP     (#$F098,PC)			;
0024EA 183C 0056            	MOVE.B  #$00000056,D4 		;
0024EE 4EFA         F090    	JMP     (#$F090,PC)			;
0024F2 183C 0057            	MOVE.B  #$00000057,D4 		;
0024F6 4EFA         F088    	JMP     (#$F088,PC)			;
0024FA 183C 0058            	MOVE.B  #$00000058,D4 		;
0024FE 4EFA         F080    	JMP     (#$F080,PC)			;
002502 183C 0059            	MOVE.B  #$00000059,D4 		;
002506 4EFA         F078    	JMP     (#$F078,PC)			;
00250A 183C 005A            	MOVE.B  #$0000005A,D4 		;
00250E 4EFA         F070    	JMP     (#$F070,PC)			;
002512 183C 005C            	MOVE.B  #$0000005C,D4 		;
002516 4EFA         F068    	JMP     (#$F068,PC)			;
00251A 183C 005D            	MOVE.B  #$0000005D,D4 		;
00251E 4EFA         F060    	JMP     (#$F060,PC)			;
002522 183C 005E            	MOVE.B  #$0000005E,D4 		;
002526 4EFA         F058    	JMP     (#$F058,PC)			;
00252A 183C 005F            	MOVE.B  #$0000005F,D4 		;
00252E 4EFA         F050    	JMP     (#$F050,PC)			;
002532 183C 0060            	MOVE.B  #$00000060,D4 		;
002536 4EFA         F048    	JMP     (#$F048,PC)			;
00253A 183C 0061            	MOVE.B  #$00000061,D4 		;
00253E 4EFA         F040    	JMP     (#$F040,PC)			;
002542 183C 0062            	MOVE.B  #$00000062,D4 		;
002546 4EFA         F038    	JMP     (#$F038,PC)			;
00254A 183C 0063            	MOVE.B  #$00000063,D4 		;
00254E 4EFA         F030    	JMP     (#$F030,PC)			;
002552 183C 0064            	MOVE.B  #$00000064,D4 		;
002556 4EFA         F028    	JMP     (#$F028,PC)			;
00255A 183C 0065            	MOVE.B  #$00000065,D4 		;
00255E 4EFA         F020    	JMP     (#$F020,PC)			;
002562 183C 0066            	MOVE.B  #$00000066,D4 		;
002566 4EFA         F018    	JMP     (#$F018,PC)			;
00256A 183C 0067            	MOVE.B  #$00000067,D4 		;
00256E 4EFA         F010    	JMP     (#$F010,PC)			;
002572 183C 0068            	MOVE.B  #$00000068,D4 		;
002576 4EFA         F008    	JMP     (#$F008,PC)			;
00257A 183C 0069            	MOVE.B  #$00000069,D4 		;
00257E 4EFA         F000    	JMP     (#$F000,PC)			;
002582 183C 006A            	MOVE.B  #$0000006A,D4 		;
002586 4EFA         EFF8    	JMP     (#$EFF8,PC)			;
00258A 183C 006B            	MOVE.B  #$0000006B,D4 		;
00258E 4EFA         EFF0    	JMP     (#$EFF0,PC)			;
002592 183C 006C            	MOVE.B  #$0000006C,D4 		;
002596 4EFA         EFE8    	JMP     (#$EFE8,PC)			;
00259A 183C 006D            	MOVE.B  #$0000006D,D4 		;
00259E 4EFA         EFE0    	JMP     (#$EFE0,PC)			;
0025A2 183C 006E            	MOVE.B  #$0000006E,D4 		;
0025A6 4EFA         EFD8    	JMP     (#$EFD8,PC)			;
0025AA 183C 006F            	MOVE.B  #$0000006F,D4 		;
0025AE 4EFA         EFD0    	JMP     (#$EFD0,PC)			;
0025B2 183C 0070            	MOVE.B  #$00000070,D4 		;
0025B6 4EFA         EFC8    	JMP     (#$EFC8,PC)			;
0025BA 183C 0071            	MOVE.B  #$00000071,D4 		;
0025BE 4EFA         EFC0    	JMP     (#$EFC0,PC)			;
0025C2 183C 0072            	MOVE.B  #$00000072,D4 		;
0025C6 4EFA         EFB8    	JMP     (#$EFB8,PC)			;
0025CA 183C 0073            	MOVE.B  #$00000073,D4 		;
0025CE 4EFA         EFB0    	JMP     (#$EFB0,PC)			;
0025D2 183C 0074            	MOVE.B  #$00000074,D4 		;
0025D6 4EFA         EFA8    	JMP     (#$EFA8,PC)			;
0025DA 183C 0075            	MOVE.B  #$00000075,D4 		;
0025DE 4EFA         EFA0    	JMP     (#$EFA0,PC)			;
0025E2 183C 0076            	MOVE.B  #$00000076,D4 		;
0025E6 4EFA         EF98    	JMP     (#$EF98,PC)			;
0025EA 183C 0077            	MOVE.B  #$00000077,D4 		;
0025EE 4EFA         EF90    	JMP     (#$EF90,PC)			;
0025F2 183C 0078            	MOVE.B  #$00000078,D4 		;
0025F6 4EFA         EF88    	JMP     (#$EF88,PC)			;
0025FA 183C 0079            	MOVE.B  #$00000079,D4 		;
0025FE 4EFA         EF80    	JMP     (#$EF80,PC)			;
002602 183C 007A            	MOVE.B  #$0000007A,D4 		;
002606 4EFA         EF78    	JMP     (#$EF78,PC)			;
00260A 183C 007C            	MOVE.B  #$0000007C,D4 		;
00260E 4EFA         EF70    	JMP     (#$EF70,PC)			;
002612 183C 007D            	MOVE.B  #$0000007D,D4 		;
002616 4EFA         EF68    	JMP     (#$EF68,PC)			;
00261A 183C 007E            	MOVE.B  #$0000007E,D4 		;
00261E 4EFA         EF60    	JMP     (#$EF60,PC)			;
002622 183C 007F            	MOVE.B  #$0000007F,D4 		;
002626 4EFA         EF58    	JMP     (#$EF58,PC)			;
00262A 0C01 0012            	CMPI.B  #$0012, D1			;
00262E 6400 0038            	BCC     #$0038				;
002632 0203 007F            	ANDI.B  #$007F, D3			;
002636 E40B                 	LSR.B   #2, D3		;
002638 0403 0010            	SUBI.B  #$0010, D3			;
00263C 6406                 	BCC     #$0006				;
00263E 4603                 	NOT    	D3		;
002640 0603 0010            	ADDI.B  #$0010, D3			;
002644 142E 1831            	MOVE.B  (#$1831,A6),D2 		;
002648 6A04                 	BPL     #$0004				;
00264A 0203 00E0            	ANDI.B  #$00E0, D3			;
00264E 3401                 	MOVE.W  D1,D2 		;
002650 0642 187E            	ADDI.W  #$187E, D2			;
002654 1036 2000            	MOVE.B  (#$00,A6,D2),D0 		;
002658 0200 00E0            	ANDI.B  #$00E0, D0			;
00265C 8600                 	OR.B    D0, D3		;
00265E 1D83         2000    	MOVE.B  D3,(#$00,A6,D2) 		;
002662 EB49                 	LSL.W   #5, D1		;
002664 1B83         1017    	MOVE.B  D3,(#$17,A5,D1) 		;
002668 4E75                 	RTS     					;
00266A 0C01 0012            	CMPI.B  #$0012, D1			;
00266E 6400 0022            	BCC     #$0022				;
002672 0203 0070            	ANDI.B  #$0070, D3			;
002676 D603                 	ADD.B   D3, D3		;
002678 3401                 	MOVE.W  D1,D2 		;
00267A 0642 187E            	ADDI.W  #$187E, D2			;
00267E 1036 2000            	MOVE.B  (#$00,A6,D2),D0 		;
002682 0200 001F            	ANDI.B  #$001F, D0			;
002686 8600                 	OR.B    D0, D3		;
002688 1D83         2000    	MOVE.B  D3,(#$00,A6,D2) 		;
00268C EB49                 	LSL.W   #5, D1		;
00268E 1B83         1017    	MOVE.B  D3,(#$17,A5,D1) 		;
002692 4E75                 	RTS     					;
002694 3003                 	MOVE.W  D3,D0 		;
002696 0240 000F            	ANDI.W  #$000F, D0			;
00269A 4EBA         EDE0    	JSR     (#$EDE0,PC)			;
00269E 3001                 	MOVE.W  D1,D0 		;
0026A0 E948                 	LSL.W   #4, D0		;
0026A2 D06E         1800    	ADD.W   D0, (#$1800,A6)		;
0026A6 2D82         0004    	MOVE.L  D2,(#$04,A6,D0) 		;
0026AA 7400                 	MOVEQ   #$00, D2			;
0026AC 322E 1802            	MOVE.W  (#$1802,A6),D1 		;
0026B0 4EFA         F950    	JMP     (#$F950,PC)			;
0026B4 D603                 	ADD.B   D3, D3		;
0026B6 0203 00E0            	ANDI.B  #$00E0, D3			;
0026BA 7E1F                 	MOVEQ   #$1F, D7			;
0026BC 4244                 	CLR     D4		;
0026BE 41EE         1000    	LEA     (#$1000,A6), A0		;
0026C2 B230         4001    	CMP.B   (#$01,A0,D4), D1		;
0026C6 661E                 	BNE     #$001E				;
0026C8 2270 4008            	MOVE.L  (#$08,A0,D4),A1 		;
0026CC 1029 000E            	MOVE.B  (#$000E,A1),D0 		;
0026D0 6A14                 	BPL     #$0014				;
0026D2 1A29 0015            	MOVE.B  (#$0015,A1),D5 		;
0026D6 1603                 	MOVE.B  D3,D3 		;
0026D8 6B04                 	BMI     #$0004				;
0026DA 0205 0018            	ANDI.B  #$0018, D5			;
0026DE E24C                 	LSR.W   #1, D4		;
0026E0 1B85         4013    	MOVE.B  D5,(#$13,A5,D4) 		;
0026E4 D844                 	ADD.W   D4, D4		;
0026E6 0644 0040            	ADDI.W  #$0040, D4			;
0026EA 51CF FFD6            	DBRA    D7, #$FFD6			;
0026EE 4E75                 	RTS     					;
0026F0 1603                 	MOVE.B  D3,D3 		;
0026F2 6634                 	BNE     #$0034				;
0026F4 7E1F                 	MOVEQ   #$1F, D7			;
0026F6 4244                 	CLR     D4		;
0026F8 41EE         1000    	LEA     (#$1000,A6), A0		;
0026FC B230         4001    	CMP.B   (#$01,A0,D4), D1		;
002700 6616                 	BNE     #$0016				;
002702 E24C                 	LSR.W   #1, D4		;
002704 1BBC 00FF    400B    	MOVE.B  #$000000FF,(#$0B,A5,D4) 		;
00270A 1035 4000            	MOVE.B  (#$00,A5,D4),D0 		;
00270E 0200 0007            	ANDI.B  #$0007, D0			;
002712 1B80         4000    	MOVE.B  D0,(#$00,A5,D4) 		;
002716 D844                 	ADD.W   D4, D4		;
002718 0644 0040            	ADDI.W  #$0040, D4			;
00271C 51CF FFDE            	DBRA    D7, #$FFDE			;
002720 1015                 	MOVE.B  (A5),D0 		;
002722 0000 0010            	ORI.B   #$0010, D0 			;
002726 1A80                 	MOVE.B  D0,(A5) 		;
002728 4E75                 	RTS     					;
00272A 3001                 	MOVE.W  D1,D0 		;
00272C E948                 	LSL.W   #4, D0		;
00272E 342E 1800            	MOVE.W  (#$1800,A6),D2 		;
002732 D042                 	ADD.W   D2, D0		;
002734 0243 007F            	ANDI.W  #$007F, D3			;
002738 1D83         0002    	MOVE.B  D3,(#$02,A6,D0) 		;
00273C D603                 	ADD.B   D3, D3		;
00273E 7E1F                 	MOVEQ   #$1F, D7			;
002740 7800                 	MOVEQ   #$00, D4			;
002742 41EE         1000    	LEA     (#$1000,A6), A0		;
002746 0830 0007    4034    	BTST    #$07, (#$34,A0,D4)			;
00274C 662A                 	BNE     #$002A				;
00274E B230         4001    	CMP.B   (#$01,A0,D4), D1		;
002752 6600 0024            	BNE     #$0024				;
002756 B470         4006    	CMP.W   (#$06,A0,D4), D2		;
00275A 6600 001C            	BNE     #$001C				;
00275E 0830 0000    4005    	BTST    #$00, (#$05,A0,D4)			;
002764 6712                 	BEQ     #$0012				;
002766 3A30 4036            	MOVE.W  (#$36,A0,D4),D5 		;
00276A CAC3                 	MULU    D3, D5		;
00276C 4845                 	SWAP    D5		;
00276E 4605                 	NOT    	D5		;
002770 E24C                 	LSR.W   #1, D4		;
002772 1B85         400D    	MOVE.B  D5,(#$0D,A5,D4) 		;
002776 D844                 	ADD.W   D4, D4		;
002778 0644 0040            	ADDI.W  #$0040, D4			;
00277C 51CF FFC8            	DBRA    D7, #$FFC8			;
002780 4E75                 	RTS     					;
002782 0203 007F            	ANDI.B  #$007F, D3			;
002786 E40B                 	LSR.B   #2, D3		;
002788 0403 0010            	SUBI.B  #$0010, D3			;
00278C 6406                 	BCC     #$0006				;
00278E 4603                 	NOT    	D3		;
002790 0603 0010            	ADDI.B  #$0010, D3			;
002794 302E 180A            	MOVE.W  (#$180A,A6),D0 		;
002798 0003 0080            	ORI.B   #$0080, D3 			;
00279C 1D83         0001    	MOVE.B  D3,(#$01,A6,D0) 		;
0027A0 0203 001F            	ANDI.B  #$001F, D3			;
0027A4 182E 1831            	MOVE.B  (#$1831,A6),D4 		;
0027A8 6A02                 	BPL     #$0002				;
0027AA 4243                 	CLR     D3		;
0027AC 7E1F                 	MOVEQ   #$1F, D7			;
0027AE 7800                 	MOVEQ   #$00, D4			;
0027B0 41EE         1000    	LEA     (#$1000,A6), A0		;
0027B4 B230         4001    	CMP.B   (#$01,A0,D4), D1		;
0027B8 6600 001C            	BNE     #$001C				;
0027BC B070         4006    	CMP.W   (#$06,A0,D4), D0		;
0027C0 6600 0014            	BNE     #$0014				;
0027C4 E24C                 	LSR.W   #1, D4		;
0027C6 1A35 4016            	MOVE.B  (#$16,A5,D4),D5 		;
0027CA 0205 00E0            	ANDI.B  #$00E0, D5			;
0027CE 8A03                 	OR.B    D3, D5		;
0027D0 1B85         4016    	MOVE.B  D5,(#$16,A5,D4) 		;
0027D4 D844                 	ADD.W   D4, D4		;
0027D6 0644 0040            	ADDI.W  #$0040, D4			;
0027DA 51CF FFD8            	DBRA    D7, #$FFD8			;
0027DE 4E75                 	RTS     					;
0027E0 0243 007F            	ANDI.W  #$007F, D3			;
0027E4 3D43         1848    	MOVE.W  D3,(#$1848,A6) 		;
0027E8 342E 1800            	MOVE.W  (#$1800,A6),D2 		;
0027EC E949                 	LSL.W   #4, D1		;
0027EE D441                 	ADD.W   D1, D2		;
0027F0 2D76 2004    184C    	MOVE.L  (#$04,A6,D2),(#$184C,A6) 		;
0027F6 4EBA         EBC2    	JSR     (#$EBC2,PC)			;
0027FA 4EFA         EBF4    	JMP     (#$EBF4,PC)			;
0027FE 3E01                 	MOVE.W  D1,D7 		;
002800 E94F                 	LSL.W   #4, D7		;
002802 3C2E 1800            	MOVE.W  (#$1800,A6),D6 		;
002806 DE46                 	ADD.W   D6, D7		;
002808 1036 7003            	MOVE.B  (#$03,A6,D7),D0 		;
00280C 0203 0040            	ANDI.B  #$0040, D3			;
002810 665A                 	BNE     #$005A				;
002812 0200 00BF            	ANDI.B  #$00BF, D0			;
002816 1D80         7003    	MOVE.B  D0,(#$03,A6,D7) 		;
00281A 7E20                 	MOVEQ   #$20, D7			;
00281C 9E6E         182A    	SUB.W   D7, (#$182A,A6)		;
002820 6748                 	BEQ     #$0048				;
002822 5347                 	SUBQ.W  #$1, D7			;
002824 41EE         18C0    	LEA     (#$18C0,A6), A0		;
002828 49EE         1000    	LEA     (#$1000,A6), A4		;
00282C 302E 1822            	MOVE.W  (#$1822,A6),D0 		;
002830 0240 003E            	ANDI.W  #$003E, D0			;
002834 3830 0000            	MOVE.W  (#$00,A0,D0),D4 		;
002838 0244 07C0            	ANDI.W  #$07C0, D4			;
00283C B234         4001    	CMP.B   (#$01,A4,D4), D1		;
002840 6622                 	BNE     #$0022				;
002842 BC74         4006    	CMP.W   (#$06,A4,D4), D6		;
002846 661C                 	BNE     #$001C				;
002848 0834 0001    4005    	BTST    #$01, (#$05,A4,D4)			;
00284E 6714                 	BEQ     #$0014				;
002850 1434 4002            	MOVE.B  (#$02,A4,D4),D2 		;
002854 1634 4003            	MOVE.B  (#$03,A4,D4),D3 		;
002858 48E7 FFF8            	MOVEM.L  FFF8, -(A7)		;
00285C 4EBA         07D0    	JSR     (#$07D0,PC)			;
002860 4CDF 1FFF            	MOVEM.L  (A7)+, 1FFF		;
002864 5440                 	ADDQ.W  #$2, D0			;
002866 51CF FFC8            	DBRA    D7, #$FFC8			;
00286A 4E75                 	RTS     					;
00286C 0000 0040            	ORI.B   #$0040, D0 			;
002870 1D80         7003    	MOVE.B  D0,(#$03,A6,D7) 		;
002874 4E75                 	RTS     					;
002876 0C03 0010            	CMPI.B  #$0010, D3			;
00287A 6400 ECBC            	BCC     #$ECBC				;
00287E 1203                 	MOVE.B  D3,D1 		;
002880 0001 0020            	ORI.B   #$0020, D1 			;
002884 7630                 	MOVEQ   #$30, D3			;
002886 41F8         0500    	LEA     $0500.W, A0		;
00288A 7E1F                 	MOVEQ   #$1F, D7			;
00288C 1010                 	MOVE.B  (A0),D0 		;
00288E 6B00 ECAE            	BMI     #$ECAE				;
002892 B200                 	CMP.B   D0, D1		;
002894 670C                 	BEQ     #$000C				;
002896 41E8         0008    	LEA     (#$0008,A0), A0		;
00289A 51CF FFF0            	DBRA    D7, #$FFF0			;
00289E 6000 EC9E            	BRA     #$EC9E				;
0028A2 2018                 	MOVE.L  (A0)+,D0 		;
0028A4 0280 000FFFFF        	ANDI.L  #$000FFFFF, D0			;
0028AA 2410                 	MOVE.L  (A0),D2 		;
0028AC 0282 000FFFFF        	ANDI.L  #$000FFFFF, D2			;
0028B2 2040                 	MOVE.L  D0,A0 		;
0028B4 43F8         0500    	LEA     $0500.W, A1		;
0028B8 7E1F                 	MOVEQ   #$1F, D7			;
0028BA 1011                 	MOVE.B  (A1),D0 		;
0028BC 6B00 EC86            	BMI     #$EC86				;
0028C0 0200 0070            	ANDI.B  #$0070, D0			;
0028C4 B600                 	CMP.B   D0, D3		;
0028C6 670C                 	BEQ     #$000C				;
0028C8 43E9         0008    	LEA     (#$0008,A1), A1		;
0028CC 51CF FFEC            	DBRA    D7, #$FFEC			;
0028D0 6000 EC72            	BRA     #$EC72				;
0028D4 2A19                 	MOVE.L  (A1)+,D5 		;
0028D6 3605                 	MOVE.W  D5,D3 		;
0028D8 0243 1FFF            	ANDI.W  #$1FFF, D3			;
0028DC 6600 EC6C            	BNE     #$EC6C				;
0028E0 0285 000FE000        	ANDI.L  #$000FE000, D5			;
0028E6 2611                 	MOVE.L  (A1),D3 		;
0028E8 0283 000FFFFF        	ANDI.L  #$000FFFFF, D3			;
0028EE 1D68 0022    1830    	MOVE.B  (#$0022,A0),(#$1830,A6) 		;
0028F4 223C 00004000        	MOVE.L  #$00004000,D1 		;
0028FA 1028 0020            	MOVE.B  (#$0020,A0),D0 		;
0028FE 0240 0003            	ANDI.W  #$0003, D0			;
002902 6702                 	BEQ     #$0002				;
002904 E1A9                 	LSL.L   D0, D1		;
002906 0681 00000040        	ADDI.L  #$00000040, D1			;
00290C 7800                 	MOVEQ   #$00, D4			;
00290E 1828 0021            	MOVE.B  (#$0021,A0),D4 		;
002912 6704                 	BEQ     #$0004				;
002914 C8FC         0A00    	MULU    #$00000A00, D4		;
002918 D284                 	ADD.L   D4, D1		;
00291A B681                 	CMP.L   D1, D3		;
00291C 6500 EC32            	BCS     #$EC32				;
002920 1028 0020            	MOVE.B  (#$0020,A0),D0 		;
002924 0240 0003            	ANDI.W  #$0003, D0			;
002928 EF48                 	LSL.W   #7, D0		;
00292A E78D                 	LSL.L   #3, D5		;
00292C 4845                 	SWAP    D5		;
00292E 8045                 	OR.W    D5, D0		;
002930 3B40         0402    	MOVE.W  D0,(#$0402,A5) 		;
002934 45E8         0040    	LEA     (#$0040,A0), A2		;
002938 47ED         0700    	LEA     (#$0700,A5), A3		;
00293C 3E3C 013F            	MOVE.W  #$0000013F,D7 		;
002940 26DA                 	MOVE.L  (A2)+,(A3)+ 		;
002942 51CF FFFC            	DBRA    D7, #$FFFC			;
002946 1428 0020            	MOVE.B  (#$0020,A0),D2 		;
00294A 263C 00004000        	MOVE.L  #$00004000,D3 		;
002950 0242 0003            	ANDI.W  #$0003, D2			;
002954 6702                 	BEQ     #$0002				;
002956 E5AB                 	LSL.L   D2, D3		;
002958 4845                 	SWAP    D5		;
00295A E68D                 	LSR.L   #3, D5		;
00295C DA83                 	ADD.L   D3, D5		;
00295E 2D45         1804    	MOVE.L  D5,(#$1804,A6) 		;
002962 2045                 	MOVE.L  D5,A0 		;
002964 7000                 	MOVEQ   #$00, D0			;
002966 7E0F                 	MOVEQ   #$0F, D7			;
002968 20C0                 	MOVE.L  D0,(A0)+ 		;
00296A 51CF FFFC            	DBRA    D7, #$FFFC			;
00296E E48C                 	LSR.L   #2, D4		;
002970 6708                 	BEQ     #$0008				;
002972 5344                 	SUBQ.W  #$1, D4			;
002974 20DA                 	MOVE.L  (A2)+,(A0)+ 		;
002976 51CC FFFC            	DBRA    D4, #$FFFC			;
00297A 2D4A         182C    	MOVE.L  A2,(#$182C,A6) 		;
00297E 4E75                 	RTS     					;
002980 0242 007F            	ANDI.W  #$007F, D2			;
002984 0243 007F            	ANDI.W  #$007F, D3			;
002988 EF4B                 	LSL.W   #7, D3		;
00298A 8443                 	OR.W    D3, D2		;
00298C 0442 2000            	SUBI.W  #$2000, D2			;
002990 3801                 	MOVE.W  D1,D4 		;
002992 E94C                 	LSL.W   #4, D4		;
002994 D86E         1800    	ADD.W   D4, (#$1800,A6)		;
002998 1036 4000            	MOVE.B  (#$00,A6,D4),D0 		;
00299C 2476 4004            	MOVE.L  (#$04,A6,D4),A2 		;
0029A0 D040                 	ADD.W   D0, D0		;
0029A2 3032 0008            	MOVE.W  (#$08,A2,D0),D0 		;
0029A6 1032 0000            	MOVE.B  (#$00,A2,D0),D0 		;
0029AA 0240 000F            	ANDI.W  #$000F, D0			;
0029AE D040                 	ADD.W   D0, D0		;
0029B0 D040                 	ADD.W   D0, D0		;
0029B2 4EFB         0002    	JMP     (#$02,PC,D0)			;
0029B6 4242                 	CLR     D2		;
0029B8 6056                 	BRA     #$0056				;
0029BA EA42                 	ASR.W   #5, D2		;
0029BC 6052                 	BRA     #$0052				;
0029BE E842                 	ASR.W   #4, D2		;
0029C0 604E                 	BRA     #$004E				;
0029C2 E842                 	ASR.W   #4, D2		;
0029C4 6026                 	BRA     #$0026				;
0029C6 E642                 	ASR.W   #3, D2		;
0029C8 6046                 	BRA     #$0046				;
0029CA E642                 	ASR.W   #3, D2		;
0029CC 6030                 	BRA     #$0030				;
0029CE E642                 	ASR.W   #3, D2		;
0029D0 601A                 	BRA     #$001A				;
0029D2 E642                 	ASR.W   #3, D2		;
0029D4 602E                 	BRA     #$002E				;
0029D6 E442                 	ASR.W   #2, D2		;
0029D8 6036                 	BRA     #$0036				;
0029DA E442                 	ASR.W   #2, D2		;
0029DC 601A                 	BRA     #$001A				;
0029DE E442                 	ASR.W   #2, D2		;
0029E0 601C                 	BRA     #$001C				;
0029E2 E442                 	ASR.W   #2, D2		;
0029E4 600C                 	BRA     #$000C				;
0029E6 E442                 	ASR.W   #2, D2		;
0029E8 6002                 	BRA     #$0002				;
0029EA E242                 	ASR.W   #1, D2		;
0029EC 3602                 	MOVE.W  D2,D3 		;
0029EE 7801                 	MOVEQ   #$01, D4			;
0029F0 601A                 	BRA     #$001A				;
0029F2 3602                 	MOVE.W  D2,D3 		;
0029F4 E443                 	ASR.W   #2, D3		;
0029F6 6010                 	BRA     #$0010				;
0029F8 3602                 	MOVE.W  D2,D3 		;
0029FA 7803                 	MOVEQ   #$03, D4			;
0029FC 600E                 	BRA     #$000E				;
0029FE 3602                 	MOVE.W  D2,D3 		;
002A00 7802                 	MOVEQ   #$02, D4			;
002A02 6008                 	BRA     #$0008				;
002A04 3602                 	MOVE.W  D2,D3 		;
002A06 E243                 	ASR.W   #1, D3		;
002A08 D443                 	ADD.W   D3, D2		;
002A0A 7801                 	MOVEQ   #$01, D4			;
002A0C E863                 	ASR.W   D4, D3		;
002A0E D443                 	ADD.W   D3, D2		;
002A10 362E 1800            	MOVE.W  (#$1800,A6),D3 		;
002A14 E949                 	LSL.W   #4, D1		;
002A16 D641                 	ADD.W   D1, D3		;
002A18 3D82         3008    	MOVE.W  D2,(#$08,A6,D3) 		;
002A1C 4E75                 	RTS     					;
002A1E 1603                 	MOVE.B  D3,D3 		;
002A20 6700 060C            	BEQ     #$060C				;
002A24 7000                 	MOVEQ   #$00, D0			;
002A26 3C2E 180A            	MOVE.W  (#$180A,A6),D6 		;
002A2A 1036 6000            	MOVE.B  (#$00,A6,D6),D0 		;
002A2E 45EE         1B00    	LEA     (#$1B00,A6), A2		;
002A32 4246                 	CLR     D6		;
002A34 1C2E 1830            	MOVE.B  (#$1830,A6),D6 		;
002A38 6748                 	BEQ     #$0048				;
002A3A 226E 182C            	MOVE.L  (#$182C,A6),A1 		;
002A3E 5346                 	SUBQ.W  #$1, D6			;
002A40 0246 001F            	ANDI.W  #$001F, D6			;
002A44 B211                 	CMP.B   (A1), D1		;
002A46 662E                 	BNE     #$002E				;
002A48 1569 0001    0000    	MOVE.B  (#$0001,A1),(#$0000,A2) 		;
002A4E 2549         0008    	MOVE.L  A1,(#$0008,A2) 		;
002A52 157C 0000    0006    	MOVE.B  #$00000000,(#$0006,A2) 		;
002A58 1569 0011    0001    	MOVE.B  (#$0011,A1),(#$0001,A2) 		;
002A5E 4245                 	CLR     D5		;
002A60 1A29 0010            	MOVE.B  (#$0010,A1),D5 		;
002A64 E94D                 	LSL.W   #4, D5		;
002A66 3545         0004    	MOVE.W  D5,(#$0004,A2) 		;
002A6A DA45                 	ADD.W   D5, D5		;
002A6C DB6A         0004    	ADD.W   D5, (#$0004,A2)		;
002A70 357C 0000    0002    	MOVE.W  #$00000000,(#$0002,A2) 		;
002A76 43E9         0018    	LEA     (#$0018,A1), A1		;
002A7A 45EA         0010    	LEA     (#$0010,A2), A2		;
002A7E 51CE FFC4            	DBRA    D6, #$FFC4			;
002A82 3A2E 180A            	MOVE.W  (#$180A,A6),D5 		;
002A86 2476 5004            	MOVE.L  (#$04,A6,D5),A2 		;
002A8A D040                 	ADD.W   D0, D0		;
002A8C D4F2         0008    	ADDA.W  (#$08,A2,D0), A2		;
002A90 43EE         1A00    	LEA     (#$1A00,A6), A1		;
002A94 7A00                 	MOVEQ   #$00, D5			;
002A96 7C00                 	MOVEQ   #$00, D6			;
002A98 1E2A 0002            	MOVE.B  (#$0002,A2),D7 		;
002A9C 6B00 EADC            	BMI     #$EADC				;
002AA0 0247 007F            	ANDI.W  #$007F, D7			;
002AA4 7004                 	MOVEQ   #$04, D0			;
002AA6 B432         0000    	CMP.B   (#$00,A2,D0), D2		;
002AAA 6516                 	BCS     #$0016				;
002AAC B432         0001    	CMP.B   (#$01,A2,D0), D2		;
002AB0 6210                 	BLS     #$0010				;
002AB2 228A                 	MOVE.L  A2,(A1) 		;
002AB4 D199                 	ADD.L   D0, (A1)+		;
002AB6 22C5                 	MOVE.L  D5,(A1)+ 		;
002AB8 5246                 	ADDQ.W  #$1, D6			;
002ABA 0C46 0021            	CMPI.W  #$0021, D6			;
002ABE 6400 EAD0            	BCC     #$EAD0				;
002AC2 5245                 	ADDQ.W  #$1, D5			;
002AC4 0640 0020            	ADDI.W  #$0020, D0			;
002AC8 51CF FFDC            	DBRA    D7, #$FFDC			;
002ACC 3D46         1824    	MOVE.W  D6,(#$1824,A6) 		;
002AD0 3D46         1828    	MOVE.W  D6,(#$1828,A6) 		;
002AD4 6700 EAC0            	BEQ     #$EAC0				;
002AD8 3A2E 180A            	MOVE.W  (#$180A,A6),D5 		;
002ADC 1D83         500D    	MOVE.B  D3,(#$0D,A6,D5) 		;
002AE0 1DB6 500B    500C    	MOVE.B  (#$0B,A6,D5),(#$0C,A6,D5) 		;
002AE6 1DB6 500A    500B    	MOVE.B  (#$0A,A6,D5),(#$0B,A6,D5) 		;
002AEC 1D82         500A    	MOVE.B  D2,(#$0A,A6,D5) 		;
002AF0 2676 5004            	MOVE.L  (#$04,A6,D5),A3 		;
002AF4 1DAA 0003    500E    	MOVE.B  (#$0003,A2),(#$0E,A6,D5) 		;
002AFA 1012                 	MOVE.B  (A2),D0 		;
002AFC 41EE         18C0    	LEA     (#$18C0,A6), A0		;
002B00 0200 0070            	ANDI.B  #$0070, D0			;
002B04 1D40         1815    	MOVE.B  D0,(#$1815,A6) 		;
002B08 6700 00A8            	BEQ     #$00A8				;
002B0C 3A2E 180A            	MOVE.W  (#$180A,A6),D5 		;
002B10 08F6 0007    5003    	BSET    #$07, (#$03,A6,D5)			;
002B16 7E20                 	MOVEQ   #$20, D7			;
002B18 9E6E         182A    	SUB.W   D7, (#$182A,A6)		;
002B1C 6750                 	BEQ     #$0050				;
002B1E 5347                 	SUBQ.W  #$1, D7			;
002B20 49EE         1000    	LEA     (#$1000,A6), A4		;
002B24 302E 1822            	MOVE.W  (#$1822,A6),D0 		;
002B28 0240 003E            	ANDI.W  #$003E, D0			;
002B2C 3830 0000            	MOVE.W  (#$00,A0,D0),D4 		;
002B30 0244 07C0            	ANDI.W  #$07C0, D4			;
002B34 1A34 4034            	MOVE.B  (#$34,A4,D4),D5 		;
002B38 6B2E                 	BMI     #$002E				;
002B3A B234         4001    	CMP.B   (#$01,A4,D4), D1		;
002B3E 6628                 	BNE     #$0028				;
002B40 3A34 4006            	MOVE.W  (#$06,A4,D4),D5 		;
002B44 BA6E         1800    	CMP.W   (#$1800,A6), D5		;
002B48 661E                 	BNE     #$001E				;
002B4A E24C                 	LSR.W   #1, D4		;
002B4C 1A35 4000            	MOVE.B  (#$00,A5,D4),D5 		;
002B50 0205 0007            	ANDI.B  #$0007, D5			;
002B54 0005 0010            	ORI.B   #$0010, D5 			;
002B58 1B85         4000    	MOVE.B  D5,(#$00,A5,D4) 		;
002B5C D844                 	ADD.W   D4, D4		;
002B5E 4EBA         018E    	JSR     (#$018E,PC)			;
002B62 536E         1824    	SUBQ.W  #$1, (#$1824,A6)			;
002B66 6746                 	BEQ     #$0046				;
002B68 5440                 	ADDQ.W  #$2, D0			;
002B6A 51CF FFBC            	DBRA    D7, #$FFBC			;
002B6E 3E3C 001F            	MOVE.W  #$0000001F,D7 		;
002B72 302E 1820            	MOVE.W  (#$1820,A6),D0 		;
002B76 3A2E 182A            	MOVE.W  (#$182A,A6),D5 		;
002B7A 5345                 	SUBQ.W  #$1, D5			;
002B7C 6406                 	BCC     #$0006				;
002B7E 546E         1822    	ADDQ.W  #$2, (#$1822,A6)			;
002B82 5245                 	ADDQ.W  #$1, D5			;
002B84 3D45         182A    	MOVE.W  D5,(#$182A,A6) 		;
002B88 0240 003E            	ANDI.W  #$003E, D0			;
002B8C 3830 0000            	MOVE.W  (#$00,A0,D0),D4 		;
002B90 0244 07C0            	ANDI.W  #$07C0, D4			;
002B94 546E         1820    	ADDQ.W  #$2, (#$1820,A6)			;
002B98 1C34 4034            	MOVE.B  (#$34,A4,D4),D6 		;
002B9C 6B0A                 	BMI     #$000A				;
002B9E 4EBA         014E    	JSR     (#$014E,PC)			;
002BA2 536E         1824    	SUBQ.W  #$1, (#$1824,A6)			;
002BA6 6706                 	BEQ     #$0006				;
002BA8 5440                 	ADDQ.W  #$2, D0			;
002BAA 51CF FFCA            	DBRA    D7, #$FFCA			;
002BAE 4EFA         00A6    	JMP     (#$00A6,PC)			;
002BB2 1DBC 0000    500A    	MOVE.B  #$00000000,(#$0A,A6,D5) 		;
002BB8 49EE         1000    	LEA     (#$1000,A6), A4		;
002BBC 7E20                 	MOVEQ   #$20, D7			;
002BBE 9E6E         182A    	SUB.W   D7, (#$182A,A6)		;
002BC2 6752                 	BEQ     #$0052				;
002BC4 5347                 	SUBQ.W  #$1, D7			;
002BC6 302E 1822            	MOVE.W  (#$1822,A6),D0 		;
002BCA 0240 003E            	ANDI.W  #$003E, D0			;
002BCE 3830 0000            	MOVE.W  (#$00,A0,D0),D4 		;
002BD2 0244 07C0            	ANDI.W  #$07C0, D4			;
002BD6 1A34 4034            	MOVE.B  (#$34,A4,D4),D5 		;
002BDA 6B34                 	BMI     #$0034				;
002BDC B234         4001    	CMP.B   (#$01,A4,D4), D1		;
002BE0 662E                 	BNE     #$002E				;
002BE2 B434         4002    	CMP.B   (#$02,A4,D4), D2		;
002BE6 6628                 	BNE     #$0028				;
002BE8 3A34 4006            	MOVE.W  (#$06,A4,D4),D5 		;
002BEC BA6E         1800    	CMP.W   (#$1800,A6), D5		;
002BF0 661E                 	BNE     #$001E				;
002BF2 E24C                 	LSR.W   #1, D4		;
002BF4 1A35 4000            	MOVE.B  (#$00,A5,D4),D5 		;
002BF8 0205 0007            	ANDI.B  #$0007, D5			;
002BFC 0005 0010            	ORI.B   #$0010, D5 			;
002C00 1B85         4000    	MOVE.B  D5,(#$00,A5,D4) 		;
002C04 D844                 	ADD.W   D4, D4		;
002C06 4EBA         00E6    	JSR     (#$00E6,PC)			;
002C0A 536E         1824    	SUBQ.W  #$1, (#$1824,A6)			;
002C0E 6746                 	BEQ     #$0046				;
002C10 5440                 	ADDQ.W  #$2, D0			;
002C12 51CF FFB6            	DBRA    D7, #$FFB6			;
002C16 3E3C 001F            	MOVE.W  #$0000001F,D7 		;
002C1A 302E 1820            	MOVE.W  (#$1820,A6),D0 		;
002C1E 3A2E 182A            	MOVE.W  (#$182A,A6),D5 		;
002C22 5345                 	SUBQ.W  #$1, D5			;
002C24 6406                 	BCC     #$0006				;
002C26 546E         1822    	ADDQ.W  #$2, (#$1822,A6)			;
002C2A 5245                 	ADDQ.W  #$1, D5			;
002C2C 3D45         182A    	MOVE.W  D5,(#$182A,A6) 		;
002C30 0240 003E            	ANDI.W  #$003E, D0			;
002C34 3830 0000            	MOVE.W  (#$00,A0,D0),D4 		;
002C38 0244 07C0            	ANDI.W  #$07C0, D4			;
002C3C 546E         1820    	ADDQ.W  #$2, (#$1820,A6)			;
002C40 1C34 4034            	MOVE.B  (#$34,A4,D4),D6 		;
002C44 6B0A                 	BMI     #$000A				;
002C46 4EBA         00A6    	JSR     (#$00A6,PC)			;
002C4A 536E         1824    	SUBQ.W  #$1, (#$1824,A6)			;
002C4E 6706                 	BEQ     #$0006				;
002C50 5440                 	ADDQ.W  #$2, D0			;
002C52 51CF FFCA            	DBRA    D7, #$FFCA			;
002C56 43EE         1A00    	LEA     (#$1A00,A6), A1		;
002C5A 3E2E 1828            	MOVE.W  (#$1828,A6),D7 		;
002C5E 5347                 	SUBQ.W  #$1, D7			;
002C60 2451                 	MOVE.L  (A1),A2 		;
002C62 3829 0004            	MOVE.W  (#$0004,A1),D4 		;
002C66 E24C                 	LSR.W   #1, D4		;
002C68 1A35 4000            	MOVE.B  (#$00,A5,D4),D5 		;
002C6C 0205 0007            	ANDI.B  #$0007, D5			;
002C70 082E 0005    1815    	BTST    #$05, (#$1815,A6)			;
002C76 6704                 	BEQ     #$0004				;
002C78 0005 0018            	ORI.B   #$0018, D5 			;
002C7C 0005 0008            	ORI.B   #$0008, D5 			;
002C80 1B85         4000    	MOVE.B  D5,(#$00,A5,D4) 		;
002C84 D844                 	ADD.W   D4, D4		;
002C86 302A 0010            	MOVE.W  (#$0010,A2),D0 		;
002C8A 671C                 	BEQ     #$001C				;
002C8C 122A 001B            	MOVE.B  (#$001B,A2),D1 		;
002C90 4EBA         0026    	JSR     (#$0026,PC)			;
002C94 8043                 	OR.W    D3, D0		;
002C96 122A 001C            	MOVE.B  (#$001C,A2),D1 		;
002C9A 4EBA         001C    	JSR     (#$001C,PC)			;
002C9E EC4B                 	LSR.W   #6, D3		;
002CA0 8043                 	OR.W    D3, D0		;
002CA2 E24C                 	LSR.W   #1, D4		;
002CA4 3B80         400E    	MOVE.W  D0,(#$0E,A5,D4) 		;
002CA8 5049                 	ADDQ.W  #$0, A1			;
002CAA 51CF FFB4            	DBRA    D7, #$FFB4			;
002CAE 1015                 	MOVE.B  (A5),D0 		;
002CB0 0000 0010            	ORI.B   #$0010, D0 			;
002CB4 1A80                 	MOVE.B  D0,(A5) 		;
002CB6 4E75                 	RTS     					;
002CB8 1401                 	MOVE.B  D1,D2 		;
002CBA 0201 007F            	ANDI.B  #$007F, D1			;
002CBE 41EE         1A00    	LEA     (#$1A00,A6), A0		;
002CC2 B228         0007    	CMP.B   (#$0007,A0), D1		;
002CC6 6704                 	BEQ     #$0004				;
002CC8 5048                 	ADDQ.W  #$0, A0			;
002CCA 60F6                 	BRA     #$FFF6				;
002CCC 3628 0004            	MOVE.W  (#$0004,A0),D3 		;
002CD0 9644                 	SUB.W   D4, D3		;
002CD2 0243 07C0            	ANDI.W  #$07C0, D3			;
002CD6 0C43 0700            	CMPI.W  #$0700, D3			;
002CDA 6504                 	BCS     #$0004				;
002CDC 0643 0800            	ADDI.W  #$0800, D3			;
002CE0 1402                 	MOVE.B  D2,D2 		;
002CE2 6A04                 	BPL     #$0004				;
002CE4 0643 0800            	ADDI.W  #$0800, D3			;
002CE8 0243 0FC0            	ANDI.W  #$0FC0, D3			;
002CEC 4E75                 	RTS     					;
002CEE 39AE 1800    4006    	MOVE.W  (#$1800,A6),(#$06,A4,D4) 		;
002CF4 1981         4001    	MOVE.B  D1,(#$01,A4,D4) 		;
002CF8 1982         4002    	MOVE.B  D2,(#$02,A4,D4) 		;
002CFC 1983         4003    	MOVE.B  D3,(#$03,A4,D4) 		;
002D00 4847                 	SWAP    D7		;
002D02 45EE         1A00    	LEA     (#$1A00,A6), A2		;
002D06 3584         7004    	MOVE.W  D4,(#$04,A2,D7) 		;
002D0A 2472 7000            	MOVE.L  (#$00,A2,D7),A2 		;
002D0E 3C2A 0010            	MOVE.W  (#$0010,A2),D6 		;
002D12 298A         4008    	MOVE.L  A2,(#$08,A4,D4) 		;
002D16 2A2A 0002            	MOVE.L  (#$0002,A2),D5 		;
002D1A DA8B                 	ADD.L   D5, A3		;
002D1C E24C                 	LSR.W   #1, D4		;
002D1E 2B85         4000    	MOVE.L  D5,(#$00,A5,D4) 		;
002D22 3B86         400E    	MOVE.W  D6,(#$0E,A5,D4) 		;
002D26 2BAA 0006    4004    	MOVE.L  (#$0006,A2),(#$04,A5,D4) 		;
002D2C 2BAA 000A    4008    	MOVE.L  (#$000A,A2),(#$08,A5,D4) 		;
002D32 1C2A 000E            	MOVE.B  (#$000E,A2),D6 		;
002D36 3A2A 0014            	MOVE.W  (#$0014,A2),D5 		;
002D3A 1B86         400C    	MOVE.B  D6,(#$0C,A5,D4) 		;
002D3E 6A04                 	BPL     #$0004				;
002D40 0245 FF18            	ANDI.W  #$FF18, D5			;
002D44 3B85         4012    	MOVE.W  D5,(#$12,A5,D4) 		;
002D48 3BAA 0016    4014    	MOVE.W  (#$0016,A2),(#$14,A5,D4) 		;
002D4E 1C2A 0018            	MOVE.B  (#$0018,A2),D6 		;
002D52 3A2E 180A            	MOVE.W  (#$180A,A6),D5 		;
002D56 1A36 5001            	MOVE.B  (#$01,A6,D5),D5 		;
002D5A 6A0A                 	BPL     #$000A				;
002D5C 0205 001F            	ANDI.B  #$001F, D5			;
002D60 0206 00E0            	ANDI.B  #$00E0, D6			;
002D64 8C05                 	OR.B    D5, D6		;
002D66 1A2E 1831            	MOVE.B  (#$1831,A6),D5 		;
002D6A 6A04                 	BPL     #$0004				;
002D6C 0206 00E0            	ANDI.B  #$00E0, D6			;
002D70 1B86         4016    	MOVE.B  D6,(#$16,A5,D4) 		;
002D74 4246                 	CLR     D6		;
002D76 082A 0005    0002    	BTST    #$05, (#$0002,A2)			;
002D7C 6626                 	BNE     #$0026				;
002D7E 1C2A 0017            	MOVE.B  (#$0017,A2),D6 		;
002D82 0206 0007            	ANDI.B  #$0007, D6			;
002D86 661C                 	BNE     #$001C				;
002D88 1C2A 0018            	MOVE.B  (#$0018,A2),D6 		;
002D8C 0206 00E0            	ANDI.B  #$00E0, D6			;
002D90 6612                 	BNE     #$0012				;
002D92 1C2A 000F            	MOVE.B  (#$000F,A2),D6 		;
002D96 D844                 	ADD.W   D4, D4		;
002D98 08B4 0000    4005    	BCLR    #$00, (#$05,A4,D4)			;
002D9E E24C                 	LSR.W   #1, D4		;
002DA0 6000 0110            	BRA     #$0110				;
002DA4 D844                 	ADD.W   D4, D4		;
002DA6 08F4 0000    4005    	BSET    #$00, (#$05,A4,D4)			;
002DAC E24C                 	LSR.W   #1, D4		;
002DAE 1C03                 	MOVE.B  D3,D6 		;
002DB0 4841                 	SWAP    D1		;
002DB2 4842                 	SWAP    D2		;
002DB4 4843                 	SWAP    D3		;
002DB6 224B                 	MOVE.L  A3,A1 		;
002DB8 D2E9         0002    	ADDA.W  (#$0002,A1), A1		;
002DBC 7A00                 	MOVEQ   #$00, D5			;
002DBE 1A2A 001D            	MOVE.B  (#$001D,A2),D5 		;
002DC2 DA45                 	ADD.W   D5, D5		;
002DC4 D3C5                 	ADDA.L  D5, A1		;
002DC6 DA45                 	ADD.W   D5, D5		;
002DC8 DA45                 	ADD.W   D5, D5		;
002DCA D3C5                 	ADDA.L  D5, A1		;
002DCC 4241                 	CLR     D1		;
002DCE 4242                 	CLR     D2		;
002DD0 1619                 	MOVE.B  (A1)+,D3 		;
002DD2 BC11                 	CMP.B   (A1), D6		;
002DD4 631A                 	BHI     #$001A				;
002DD6 1219                 	MOVE.B  (A1)+,D1 		;
002DD8 1419                 	MOVE.B  (A1)+,D2 		;
002DDA 1619                 	MOVE.B  (A1)+,D3 		;
002DDC BC11                 	CMP.B   (A1), D6		;
002DDE 6310                 	BHI     #$0010				;
002DE0 1219                 	MOVE.B  (A1)+,D1 		;
002DE2 1419                 	MOVE.B  (A1)+,D2 		;
002DE4 1619                 	MOVE.B  (A1)+,D3 		;
002DE6 BC11                 	CMP.B   (A1), D6		;
002DE8 6306                 	BHI     #$0006				;
002DEA 1219                 	MOVE.B  (A1)+,D1 		;
002DEC 1419                 	MOVE.B  (A1)+,D2 		;
002DEE 1619                 	MOVE.B  (A1)+,D3 		;
002DF0 9C01                 	SUB.B   D1, D6		;
002DF2 1203                 	MOVE.B  D3,D1 		;
002DF4 0241 0007            	ANDI.W  #$0007, D1			;
002DF8 D241                 	ADD.W   D1, D1		;
002DFA E80B                 	LSR.B   #4, D3		;
002DFC 4EFB         1002    	JMP     (#$02,PC,D1)			;
002E00 600E                 	BRA     #$000E				;
002E02 6018                 	BRA     #$0018				;
002E04 600C                 	BRA     #$000C				;
002E06 6048                 	BRA     #$0048				;
002E08 6006                 	BRA     #$0006				;
002E0A 604A                 	BRA     #$004A				;
002E0C 6008                 	BRA     #$0008				;
002E0E 6028                 	BRA     #$0028				;
002E10 7C00                 	MOVEQ   #$00, D6			;
002E12 DC02                 	ADD.B   D2, D6		;
002E14 6046                 	BRA     #$0046				;
002E16 9C02                 	SUB.B   D2, D6		;
002E18 4406                 	NEG     D6		;
002E1A 6040                 	BRA     #$0040				;
002E1C 6506                 	BCS     #$0006				;
002E1E E72E                 	LSL.B   D3, D6		;
002E20 DC02                 	ADD.B   D2, D6		;
002E22 6038                 	BRA     #$0038				;
002E24 0246 007F            	ANDI.W  #$007F, D6			;
002E28 E54E                 	LSL.W   #2, D6		;
002E2A 3206                 	MOVE.W  D6,D1 		;
002E2C DC41                 	ADD.W   D1, D6		;
002E2E DC41                 	ADD.W   D1, D6		;
002E30 E76E                 	LSL.W   D3, D6		;
002E32 E64E                 	LSR.W   #3, D6		;
002E34 DC02                 	ADD.B   D2, D6		;
002E36 6024                 	BRA     #$0024				;
002E38 6504                 	BCS     #$0004				;
002E3A E72E                 	LSL.B   D3, D6		;
002E3C 601A                 	BRA     #$001A				;
002E3E 0246 007F            	ANDI.W  #$007F, D6			;
002E42 E54E                 	LSL.W   #2, D6		;
002E44 3206                 	MOVE.W  D6,D1 		;
002E46 DC41                 	ADD.W   D1, D6		;
002E48 DC41                 	ADD.W   D1, D6		;
002E4A E76E                 	LSL.W   D3, D6		;
002E4C E64E                 	LSR.W   #3, D6		;
002E4E 6008                 	BRA     #$0008				;
002E50 E62E                 	LSR.B   D3, D6		;
002E52 DC02                 	ADD.B   D2, D6		;
002E54 6006                 	BRA     #$0006				;
002E56 E62E                 	LSR.B   D3, D6		;
002E58 9C02                 	SUB.B   D2, D6		;
002E5A 4406                 	NEG     D6		;
002E5C 6A0C                 	BPL     #$000C				;
002E5E 4242                 	CLR     D2		;
002E60 DC06                 	ADD.B   D6, D6		;
002E62 6B04                 	BMI     #$0004				;
002E64 343C 007F            	MOVE.W  #$0000007F,D2 		;
002E68 3C02                 	MOVE.W  D2,D6 		;
002E6A 4841                 	SWAP    D1		;
002E6C 4842                 	SWAP    D2		;
002E6E 4843                 	SWAP    D3		;
002E70 DC46                 	ADD.W   D6, D6		;
002E72 1A2A 000F            	MOVE.B  (#$000F,A2),D5 		;
002E76 4605                 	NOT    	D5		;
002E78 CCC5                 	MULU    D5, D6		;
002E7A D844                 	ADD.W   D4, D4		;
002E7C 3986         4036    	MOVE.W  D6,(#$36,A4,D4) 		;
002E80 E24C                 	LSR.W   #1, D4		;
002E82 3A2E 180A            	MOVE.W  (#$180A,A6),D5 		;
002E86 1A36 5002            	MOVE.B  (#$02,A6,D5),D5 		;
002E8A DA05                 	ADD.B   D5, D5		;
002E8C 0245 00FF            	ANDI.W  #$00FF, D5			;
002E90 CCC5                 	MULU    D5, D6		;
002E92 4846                 	SWAP    D6		;
002E94 3A2E 180A            	MOVE.W  (#$180A,A6),D5 		;
002E98 1A36 500E            	MOVE.B  (#$0E,A6,D5),D5 		;
002E9C 6B0A                 	BMI     #$000A				;
002E9E DC05                 	ADD.B   D5, D6		;
002EA0 640E                 	BCC     #$000E				;
002EA2 1C3C 00FF            	MOVE.B  #$000000FF,D6 		;
002EA6 6008                 	BRA     #$0008				;
002EA8 4405                 	NEG     D5		;
002EAA 9C05                 	SUB.B   D5, D6		;
002EAC 6402                 	BCC     #$0002				;
002EAE 4246                 	CLR     D6		;
002EB0 4606                 	NOT    	D6		;
002EB2 1B86         400D    	MOVE.B  D6,(#$0D,A5,D4) 		;
002EB6 4842                 	SWAP    D2		;
002EB8 D844                 	ADD.W   D4, D4		;
002EBA 08B4 0005    4000    	BCLR    #$05, (#$00,A4,D4)			;
002EC0 082A 0006    0002    	BTST    #$06, (#$0002,A2)			;
002EC6 6704                 	BEQ     #$0004				;
002EC8 4EBA         009E    	JSR     (#$009E,PC)			;
002ECC 4245                 	CLR     D5		;
002ECE 08B4 0006    4000    	BCLR    #$06, (#$00,A4,D4)			;
002ED4 082A 0007    0002    	BTST    #$07, (#$0002,A2)			;
002EDA 6704                 	BEQ     #$0004				;
002EDC 4EBA         00FC    	JSR     (#$00FC,PC)			;
002EE0 E24C                 	LSR.W   #1, D4		;
002EE2 4EBA         0012    	JSR     (#$0012,PC)			;
002EE6 08B5 0007    4012    	BCLR    #$07, (#$12,A5,D4)			;
002EEC 4842                 	SWAP    D2		;
002EEE 5047                 	ADDQ.W  #$0, D7			;
002EF0 4847                 	SWAP    D7		;
002EF2 D844                 	ADD.W   D4, D4		;
002EF4 4E75                 	RTS     					;
002EF6 D844                 	ADD.W   D4, D4		;
002EF8 4246                 	CLR     D6		;
002EFA 4242                 	CLR     D2		;
002EFC 1C2A 001A            	MOVE.B  (#$001A,A2),D6 		;
002F00 4886                 	EXT.W   D6		;
002F02 DA46                 	ADD.W   D6, D5		;
002F04 3C05                 	MOVE.W  D5,D6 		;
002F06 E04E                 	LSR.W   #0, D6		;
002F08 1434 4002            	MOVE.B  (#$02,A4,D4),D2 		;
002F0C DC42                 	ADD.W   D2, D6		;
002F0E 0646 0060            	ADDI.W  #$0060, D6			;
002F12 142A 0019            	MOVE.B  (#$0019,A2),D2 		;
002F16 9C42                 	SUB.W   D2, D6		;
002F18 0246 00FF            	ANDI.W  #$00FF, D6			;
002F1C 45FA         0498    	LEA     (#$0498,PC), A2		;
002F20 1C32 6000            	MOVE.B  (#$00,A2,D6),D6 		;
002F24 EF4E                 	LSL.W   #7, D6		;
002F26 3406                 	MOVE.W  D6,D2 		;
002F28 0246 7800            	ANDI.W  #$7800, D6			;
002F2C D442                 	ADD.W   D2, D2		;
002F2E 1405                 	MOVE.B  D5,D2 		;
002F30 0242 0FFE            	ANDI.W  #$0FFE, D2			;
002F34 E24A                 	LSR.W   #1, D2		;
002F36 45FA         053E    	LEA     (#$053E,PC), A2		;
002F3A 4245                 	CLR     D5		;
002F3C 1A32 2000            	MOVE.B  (#$00,A2,D2),D5 		;
002F40 0C42 01EF            	CMPI.W  #$01EF, D2			;
002F44 6518                 	BCS     #$0018				;
002F46 0C42 0383            	CMPI.W  #$0383, D2			;
002F4A 650E                 	BCS     #$000E				;
002F4C 0C42 04D9            	CMPI.W  #$04D9, D2			;
002F50 6504                 	BCS     #$0004				;
002F52 0645 0100            	ADDI.W  #$0100, D5			;
002F56 0645 0100            	ADDI.W  #$0100, D5			;
002F5A 0645 0100            	ADDI.W  #$0100, D5			;
002F5E 8C45                 	OR.W    D5, D6		;
002F60 E24C                 	LSR.W   #1, D4		;
002F62 3B86         4010    	MOVE.W  D6,(#$10,A5,D4) 		;
002F66 4E75                 	RTS     					;
002F68 4840                 	SWAP    D0		;
002F6A 7C00                 	MOVEQ   #$00, D6			;
002F6C 2986         400C    	MOVE.L  D6,(#$0C,A4,D4) 		;
002F70 224B                 	MOVE.L  A3,A1 		;
002F72 3C29 0006            	MOVE.W  (#$0006,A1),D6 		;
002F76 D3C6                 	ADDA.L  D6, A1		;
002F78 4242                 	CLR     D2		;
002F7A 142A 001F            	MOVE.B  (#$001F,A2),D2 		;
002F7E D442                 	ADD.W   D2, D2		;
002F80 D442                 	ADD.W   D2, D2		;
002F82 D2C2                 	ADDA.W  D2, A1		;
002F84 1019                 	MOVE.B  (A1)+,D0 		;
002F86 4EBA         0AEE    	JSR     (#$0AEE,PC)			;
002F8A E448                 	LSR.W   #2, D0		;
002F8C 3980         4018    	MOVE.W  D0,(#$18,A4,D4) 		;
002F90 1019                 	MOVE.B  (A1)+,D0 		;
002F92 4EBA         0AE2    	JSR     (#$0AE2,PC)			;
002F96 3C00                 	MOVE.W  D0,D6 		;
002F98 4846                 	SWAP    D6		;
002F9A 4246                 	CLR     D6		;
002F9C E08E                 	LSR.L   #0, D6		;
002F9E 2986         4010    	MOVE.L  D6,(#$10,A4,D4) 		;
002FA2 1019                 	MOVE.B  (A1)+,D0 		;
002FA4 4EBA         0AD0    	JSR     (#$0AD0,PC)			;
002FA8 E848                 	LSR.W   #4, D0		;
002FAA 3980         401A    	MOVE.W  D0,(#$1A,A4,D4) 		;
002FAE 3400                 	MOVE.W  D0,D2 		;
002FB0 1011                 	MOVE.B  (A1),D0 		;
002FB2 4EBA         0AC2    	JSR     (#$0AC2,PC)			;
002FB6 EC48                 	LSR.W   #6, D0		;
002FB8 6604                 	BNE     #$0004				;
002FBA E24A                 	LSR.W   #1, D2		;
002FBC 6004                 	BRA     #$0004				;
002FBE D040                 	ADD.W   D0, D0		;
002FC0 5340                 	SUBQ.W  #$1, D0			;
002FC2 3982         401C    	MOVE.W  D2,(#$1C,A4,D4) 		;
002FC6 3980         401E    	MOVE.W  D0,(#$1E,A4,D4) 		;
002FCA 29B4 4010    4014    	MOVE.L  (#$10,A4,D4),(#$14,A4,D4) 		;
002FD0 08F4 0005    4000    	BSET    #$05, (#$00,A4,D4)			;
002FD6 4840                 	SWAP    D0		;
002FD8 4E75                 	RTS     					;
002FDA 3D40         184A    	MOVE.W  D0,(#$184A,A6) 		;
002FDE 19BC 0001    402E    	MOVE.B  #$00000001,(#$2E,A4,D4) 		;
002FE4 7C00                 	MOVEQ   #$00, D6			;
002FE6 224B                 	MOVE.L  A3,A1 		;
002FE8 3C29 0004            	MOVE.W  (#$0004,A1),D6 		;
002FEC D3C6                 	ADDA.L  D6, A1		;
002FEE 4242                 	CLR     D2		;
002FF0 142A 001E            	MOVE.B  (#$001E,A2),D2 		;
002FF4 D442                 	ADD.W   D2, D2		;
002FF6 D2C2                 	ADDA.W  D2, A1		;
002FF8 D442                 	ADD.W   D2, D2		;
002FFA D442                 	ADD.W   D2, D2		;
002FFC D2C2                 	ADDA.W  D2, A1		;
002FFE 2989         4030    	MOVE.L  A1,(#$30,A4,D4) 		;
003002 1019                 	MOVE.B  (A1)+,D0 		;
003004 4EBA         0A70    	JSR     (#$0A70,PC)			;
003008 E448                 	LSR.W   #2, D0		;
00300A 3980         402C    	MOVE.W  D0,(#$2C,A4,D4) 		;
00300E 1019                 	MOVE.B  (A1)+,D0 		;
003010 4EBA         0CA8    	JSR     (#$0CA8,PC)			;
003014 4840                 	SWAP    D0		;
003016 3980         4020    	MOVE.W  D0,(#$20,A4,D4) 		;
00301A 3A00                 	MOVE.W  D0,D5 		;
00301C 4240                 	CLR     D0		;
00301E 3980         4022    	MOVE.W  D0,(#$22,A4,D4) 		;
003022 08F4 0006    4000    	BSET    #$06, (#$00,A4,D4)			;
003028 302E 184A            	MOVE.W  (#$184A,A6),D0 		;
00302C 4E75                 	RTS     					;
00302E 3A2E 180A            	MOVE.W  (#$180A,A6),D5 		;
003032 0836 0007    5003    	BTST    #$07, (#$03,A6,D5)			;
003038 6700 00B0            	BEQ     #$00B0				;
00303C 1C36 500A            	MOVE.B  (#$0A,A6,D5),D6 		;
003040 6722                 	BEQ     #$0022				;
003042 BC02                 	CMP.B   D2, D6		;
003044 6724                 	BEQ     #$0024				;
003046 B436         500B    	CMP.B   (#$0B,A6,D5), D2		;
00304A 670C                 	BEQ     #$000C				;
00304C B432         500C    	CMP.B   (#$0C,A2,D5), D2		;
003050 670C                 	BEQ     #$000C				;
003052 4EFA         E548    	JMP     (#$E548,PC)			;
003056 4E75                 	RTS     					;
003058 1DB6 500C    500B    	MOVE.B  (#$0C,A6,D5),(#$0B,A6,D5) 		;
00305E 1DBC 0000    500C    	MOVE.B  #$00000000,(#$0C,A6,D5) 		;
003064 4EFA         E536    	JMP     (#$E536,PC)			;
003068 4E75                 	RTS     					;
00306A 1C36 500B            	MOVE.B  (#$0B,A6,D5),D6 		;
00306E 6724                 	BEQ     #$0024				;
003070 1D86         500A    	MOVE.B  D6,(#$0A,A6,D5) 		;
003074 1406                 	MOVE.B  D6,D2 		;
003076 1636 500D            	MOVE.B  (#$0D,A6,D5),D3 		;
00307A 0203 007F            	ANDI.B  #$007F, D3			;
00307E 1DB6 500C    500A    	MOVE.B  (#$0C,A6,D5),(#$0A,A6,D5) 		;
003084 1DBC 0000    500B    	MOVE.B  #$00000000,(#$0B,A6,D5) 		;
00308A 1DBC 0000    500C    	MOVE.B  #$00000000,(#$0C,A6,D5) 		;
003090 4EFA         F98C    	JMP     (#$F98C,PC)			;
003094 0836 0006    5003    	BTST    #$06, (#$03,A6,D5)			;
00309A 674A                 	BEQ     #$004A				;
00309C 7E20                 	MOVEQ   #$20, D7			;
00309E 9E6E         182A    	SUB.W   D7, (#$182A,A6)		;
0030A2 673C                 	BEQ     #$003C				;
0030A4 5347                 	SUBQ.W  #$1, D7			;
0030A6 41EE         18C0    	LEA     (#$18C0,A6), A0		;
0030AA 49EE         1000    	LEA     (#$1000,A6), A4		;
0030AE 302E 1822            	MOVE.W  (#$1822,A6),D0 		;
0030B2 0240 003E            	ANDI.W  #$003E, D0			;
0030B6 3830 0000            	MOVE.W  (#$00,A0,D0),D4 		;
0030BA 0244 07C0            	ANDI.W  #$07C0, D4			;
0030BE B234         4001    	CMP.B   (#$01,A4,D4), D1		;
0030C2 6616                 	BNE     #$0016				;
0030C4 B434         4002    	CMP.B   (#$02,A4,D4), D2		;
0030C8 6610                 	BNE     #$0010				;
0030CA 3C34 4006            	MOVE.W  (#$06,A4,D4),D6 		;
0030CE BC6E         1800    	CMP.W   (#$1800,A6), D6		;
0030D2 6606                 	BNE     #$0006				;
0030D4 08F4 0001    4005    	BSET    #$01, (#$05,A4,D4)			;
0030DA 5440                 	ADDQ.W  #$2, D0			;
0030DC 51CF FFD4            	DBRA    D7, #$FFD4			;
0030E0 4EFA         E4BA    	JMP     (#$E4BA,PC)			;
0030E4 4E75                 	RTS     					;
0030E6 1D86         500A    	MOVE.B  D6,(#$0A,A6,D5) 		;
0030EA 41EE         18C0    	LEA     (#$18C0,A6), A0		;
0030EE 49EE         1000    	LEA     (#$1000,A6), A4		;
0030F2 7E20                 	MOVEQ   #$20, D7			;
0030F4 9E6E         182A    	SUB.W   D7, (#$182A,A6)		;
0030F8 6604                 	BNE     #$0004				;
0030FA 4EFA         E478    	JMP     (#$E478,PC)			;
0030FE 5347                 	SUBQ.W  #$1, D7			;
003100 302E 1822            	MOVE.W  (#$1822,A6),D0 		;
003104 0240 003E            	ANDI.W  #$003E, D0			;
003108 3830 0000            	MOVE.W  (#$00,A0,D0),D4 		;
00310C 0244 07C0            	ANDI.W  #$07C0, D4			;
003110 1C34 4034            	MOVE.B  (#$34,A4,D4),D6 		;
003114 6B00 0086            	BMI     #$0086				;
003118 B234         4001    	CMP.B   (#$01,A4,D4), D1		;
00311C 6600 007E            	BNE     #$007E				;
003120 B434         4002    	CMP.B   (#$02,A4,D4), D2		;
003124 6600 0076            	BNE     #$0076				;
003128 3C34 4006            	MOVE.W  (#$06,A4,D4),D6 		;
00312C BC6E         1800    	CMP.W   (#$1800,A6), D6		;
003130 6600 006A            	BNE     #$006A				;
003134 3C2E 180A            	MOVE.W  (#$180A,A6),D6 		;
003138 0836 0006    6003    	BTST    #$06, (#$03,A6,D6)			;
00313E 670A                 	BEQ     #$000A				;
003140 08F4 0001    4005    	BSET    #$01, (#$05,A4,D4)			;
003146 6000 0054            	BRA     #$0054				;
00314A 526E         182A    	ADDQ.W  #$1, (#$182A,A6)			;
00314E 0834 0006    4000    	BTST    #$06, (#$00,A4,D4)			;
003154 6704                 	BEQ     #$0004				;
003156 4EBA         00BA    	JSR     (#$00BA,PC)			;
00315A E24C                 	LSR.W   #1, D4		;
00315C 1A35 4000            	MOVE.B  (#$00,A5,D4),D5 		;
003160 0205 0007            	ANDI.B  #$0007, D5			;
003164 0005 0010            	ORI.B   #$0010, D5 			;
003168 1B85         4000    	MOVE.B  D5,(#$00,A5,D4) 		;
00316C D844                 	ADD.W   D4, D4		;
00316E 4847                 	SWAP    D7		;
003170 3A2E 1822            	MOVE.W  (#$1822,A6),D5 		;
003174 0245 003E            	ANDI.W  #$003E, D5			;
003178 3C00                 	MOVE.W  D0,D6 		;
00317A 3E06                 	MOVE.W  D6,D7 		;
00317C BA46                 	CMP.W   D6, D5		;
00317E 6716                 	BEQ     #$0016				;
003180 3830 7000            	MOVE.W  (#$00,A0,D7),D4 		;
003184 5546                 	SUBQ.W  #$2, D6			;
003186 0246 003E            	ANDI.W  #$003E, D6			;
00318A 31B0 6000    7000    	MOVE.W  (#$00,A0,D6),(#$00,A0,D7) 		;
003190 3184         6000    	MOVE.W  D4,(#$00,A0,D6) 		;
003194 60E4                 	BRA     #$FFE4				;
003196 546E         1822    	ADDQ.W  #$2, (#$1822,A6)			;
00319A 4847                 	SWAP    D7		;
00319C 5440                 	ADDQ.W  #$2, D0			;
00319E 51CF FF64            	DBRA    D7, #$FF64			;
0031A2 45EE         1B00    	LEA     (#$1B00,A6), A2		;
0031A6 4246                 	CLR     D6		;
0031A8 1C2E 1830            	MOVE.B  (#$1830,A6),D6 		;
0031AC 6762                 	BEQ     #$0062				;
0031AE 226E 182C            	MOVE.L  (#$182C,A6),A1 		;
0031B2 5346                 	SUBQ.W  #$1, D6			;
0031B4 0246 001F            	ANDI.W  #$001F, D6			;
0031B8 B211                 	CMP.B   (A1), D1		;
0031BA 6648                 	BNE     #$0048				;
0031BC 1029 0001            	MOVE.B  (#$0001,A1),D0 		;
0031C0 0C00 0008            	CMPI.B  #$0008, D0			;
0031C4 6738                 	BEQ     #$0038				;
0031C6 653C                 	BCS     #$003C				;
0031C8 157C 0006    0006    	MOVE.B  #$00000006,(#$0006,A2) 		;
0031CE 382A 0002            	MOVE.W  (#$0002,A2),D4 		;
0031D2 1029 000F            	MOVE.B  (#$000F,A1),D0 		;
0031D6 E148                 	LSL.W   #0, D0		;
0031D8 0640 8000            	ADDI.W  #$8000, D0			;
0031DC 3540         000E    	MOVE.W  D0,(#$000E,A2) 		;
0031E0 B840                 	CMP.W   D0, D4		;
0031E2 6408                 	BCC     #$0008				;
0031E4 1029 000E            	MOVE.B  (#$000E,A1),D0 		;
0031E8 6A0A                 	BPL     #$000A				;
0031EA 6006                 	BRA     #$0006				;
0031EC 1029 000E            	MOVE.B  (#$000E,A1),D0 		;
0031F0 6B02                 	BMI     #$0002				;
0031F2 4400                 	NEG     D0		;
0031F4 4EBA         0886    	JSR     (#$0886,PC)			;
0031F8 3540         0004    	MOVE.W  D0,(#$0004,A2) 		;
0031FC 6006                 	BRA     #$0006				;
0031FE 357C 0000    0004    	MOVE.W  #$00000000,(#$0004,A2) 		;
003204 43E9         0018    	LEA     (#$0018,A1), A1		;
003208 45EA         0010    	LEA     (#$0010,A2), A2		;
00320C 51CE FFAA            	DBRA    D6, #$FFAA			;
003210 4E75                 	RTS     					;
003212 4840                 	SWAP    D0		;
003214 19BC 0006    402E    	MOVE.B  #$00000006,(#$2E,A4,D4) 		;
00321A 2274 4030            	MOVE.L  (#$30,A4,D4),A1 		;
00321E 5049                 	ADDQ.W  #$0, A1			;
003220 1019                 	MOVE.B  (A1)+,D0 		;
003222 6746                 	BEQ     #$0046				;
003224 4EBA         0876    	JSR     (#$0876,PC)			;
003228 3C00                 	MOVE.W  D0,D6 		;
00322A 4846                 	SWAP    D6		;
00322C 4246                 	CLR     D6		;
00322E E886                 	ASR.L   #4, D6		;
003230 1011                 	MOVE.B  (A1),D0 		;
003232 4EBA         0A86    	JSR     (#$0A86,PC)			;
003236 3A00                 	MOVE.W  D0,D5 		;
003238 4845                 	SWAP    D5		;
00323A 4245                 	CLR     D5		;
00323C 2985         4028    	MOVE.L  D5,(#$28,A4,D4) 		;
003240 0685 80000000        	ADDI.L  #$80000000, D5			;
003246 2634 4020            	MOVE.L  (#$20,A4,D4),D3 		;
00324A 0683 80000000        	ADDI.L  #$80000000, D3			;
003250 BA83                 	CMP.L   D3, D5		;
003252 6716                 	BEQ     #$0016				;
003254 6406                 	BCC     #$0006				;
003256 2C06                 	MOVE.L  D6,D6 		;
003258 6B08                 	BMI     #$0008				;
00325A 6004                 	BRA     #$0004				;
00325C 2C06                 	MOVE.L  D6,D6 		;
00325E 6A02                 	BPL     #$0002				;
003260 4486                 	NEG     D6		;
003262 2986         4024    	MOVE.L  D6,(#$24,A4,D4) 		;
003266 4840                 	SWAP    D0		;
003268 4E75                 	RTS     					;
00326A 5234         402E    	ADDQ.B  #$1, (#$2E,A4,D4)			;
00326E 4840                 	SWAP    D0		;
003270 4E75                 	RTS     					;
003272 7807                 	MOVEQ   #$07, D4			;
003274 3D7C 0000    1800    	MOVE.W  #$00000000,(#$1800,A6) 		;
00327A 3D7C 0000    180A    	MOVE.W  #$00000000,(#$180A,A6) 		;
003280 7C1F                 	MOVEQ   #$1F, D6			;
003282 3D7C 0000    1802    	MOVE.W  #$00000000,(#$1802,A6) 		;
003288 48E7 5A00            	MOVEM.L  5A00, -(A7)		;
00328C 7000                 	MOVEQ   #$00, D0			;
00328E 322E 1802            	MOVE.W  (#$1802,A6),D1 		;
003292 4EBA         E1E8    	JSR     (#$E1E8,PC)			;
003296 3001                 	MOVE.W  D1,D0 		;
003298 E948                 	LSL.W   #4, D0		;
00329A D06E         1800    	ADD.W   D0, (#$1800,A6)		;
00329E 2D82         0004    	MOVE.L  D2,(#$04,A6,D0) 		;
0032A2 1DBC 0064    0002    	MOVE.B  #$00000064,(#$02,A6,D0) 		;
0032A8 7400                 	MOVEQ   #$00, D2			;
0032AA 322E 1802            	MOVE.W  (#$1802,A6),D1 		;
0032AE 4EBA         ED52    	JSR     (#$ED52,PC)			;
0032B2 4CDF 005A            	MOVEM.L  (A7)+, 5A		;
0032B6 066E 0010    180A    	ADDI.W  #$180A, (#$005A,A6)			;
0032BC 526E         1802    	ADDQ.W  #$1, (#$1802,A6)			;
0032C0 51CE FFC6            	DBRA    D6, #$FFC6			;
0032C4 066E 0200    1800    	ADDI.W  #$1800, (#$FFC6,A6)			;
0032CA 51CC FFB4            	DBRA    D4, #$FFB4			;
0032CE 3D7C 0000    1800    	MOVE.W  #$00000000,(#$1800,A6) 		;
0032D4 4E75                 	RTS     					;
0032D6 1B7C 0002    0400    	MOVE.B  #$00000002,(#$0400,A5) 		;
0032DC 41ED         0700    	LEA     (#$0700,A5), A0		;
0032E0 3E3C 013F            	MOVE.W  #$0000013F,D7 		;
0032E4 7000                 	MOVEQ   #$00, D0			;
0032E6 20C0                 	MOVE.L  D0,(A0)+ 		;
0032E8 51CF FFFC            	DBRA    D7, #$FFFC			;
0032EC 204D                 	MOVE.L  A5,A0 		;
0032EE 7000                 	MOVEQ   #$00, D0			;
0032F0 3E3C 00FF            	MOVE.W  #$000000FF,D7 		;
0032F4 20C0                 	MOVE.L  D0,(A0)+ 		;
0032F6 51CF FFFC            	DBRA    D7, #$FFFC			;
0032FA 204D                 	MOVE.L  A5,A0 		;
0032FC 7010                 	MOVEQ   #$10, D0			;
0032FE 7E1F                 	MOVEQ   #$1F, D7			;
003300 1080                 	MOVE.B  D0,(A0) 		;
003302 41E8         0020    	LEA     (#$0020,A0), A0		;
003306 51CF FFF8            	DBRA    D7, #$FFF8			;
00330A 1B7C 000F    0401    	MOVE.B  #$0000000F,(#$0401,A5) 		;
003310 41FA         0022    	LEA     (#$0022,PC), A0		;
003314 3018                 	MOVE.W  (A0)+,D0 		;
003316 DAC0                 	ADDA.W  D0, A5		;
003318 3E18                 	MOVE.W  (A0)+,D7 		;
00331A 1AD8                 	MOVE.B  (A0)+,(A5)+ 		;
00331C 51CF FFFC            	DBRA    D7, #$FFFC			;
003320 4BF9         00100000	LEA     $00100000.L, A5		;
003326 3B7C 00A7    0418    	MOVE.W  #$000000A7,(#$0418,A5) 		;
00332C 3B7C 0040    0422    	MOVE.W  #$00000040,(#$0422,A5) 		;
003332 4E75                 	RTS     					;
003334 041A 000F            	SUBI.B  #$000F, (A2)+			;
003338 01D4                 	BSET    D0, (A4) 		;
00333A 0000 0080            	ORI.B   #$0080, D0 			;
00333E 0000 00C0            	ORI.B   #$00C0, D0 			;
003342 0000 0080            	ORI.B   #$0080, D0 			;
003346 0000 7A00            	ORI.B   #$7A00, D0 			;
00334A 2276 5004            	MOVE.L  (#$04,A6,D5),A1 		;
00334E 7000                 	MOVEQ   #$00, D0			;
003350 3029 0008            	MOVE.W  (#$0008,A1),D0 		;
003354 D3C0                 	ADDA.L  D0, A1		;
003356 5889                 	ADDQ.L  #$4, A1			;
003358 7240                 	MOVEQ   #$40, D1			;
00335A 49EE         1008    	LEA     (#$1008,A6), A4		;
00335E 7E1F                 	MOVEQ   #$1F, D7			;
003360 2889                 	MOVE.L  A1,(A4) 		;
003362 D9C1                 	ADDA.L  D1, A4		;
003364 51CF FFFA            	DBRA    D7, #$FFFA			;
003368 4E75                 	RTS     					;
00336A 2E3C 00000FF0        	MOVE.L  #$00000FF0,D7 		;
003370 7000                 	MOVEQ   #$00, D0			;
003372 204E                 	MOVE.L  A6,A0 		;
003374 20C0                 	MOVE.L  D0,(A0)+ 		;
003376 51CF FFFC            	DBRA    D7, #$FFFC			;
00337A 7400                 	MOVEQ   #$00, D2			;
00337C 43EE         18C0    	LEA     (#$18C0,A6), A1		;
003380 7E03                 	MOVEQ   #$03, D7			;
003382 7C07                 	MOVEQ   #$07, D6			;
003384 0242 003E            	ANDI.W  #$003E, D2			;
003388 3380         2000    	MOVE.W  D0,(#$00,A1,D2) 		;
00338C 0640 0040            	ADDI.W  #$0040, D0			;
003390 5042                 	ADDQ.W  #$0, D2			;
003392 51CE FFF0            	DBRA    D6, #$FFF0			;
003396 0442 003E            	SUBI.W  #$003E, D2			;
00339A 51CF FFE6            	DBRA    D7, #$FFE6			;
00339E 3D7C 0020    182A    	MOVE.W  #$00000020,(#$182A,A6) 		;
0033A4 47EE         1890    	LEA     (#$1890,A6), A3		;
0033A8 7000                 	MOVEQ   #$00, D0			;
0033AA 7E0F                 	MOVEQ   #$0F, D7			;
0033AC 16C0                 	MOVE.B  D0,(A3)+ 		;
0033AE 5200                 	ADDQ.B  #$1, D0			;
0033B0 51CF FFFA            	DBRA    D7, #$FFFA			;
0033B4 4E75                 	RTS     					;
0033B6 8081                 	OR.L    D1, D0		;
0033B8 8283                 	OR.L    D3, D1		;
0033BA 8485                 	OR.L    D5, D2		;
0033BC 8687                 	OR.L    D7, D3		;
0033BE 8889                 	OR.L    D4, A1		;
0033C0 8A8B                 	OR.L    D5, A3		;
0033C2 9091                 	SUB.L   (A1), D0		;
0033C4 9293                 	SUB.L   (A3), D1		;
0033C6 9495                 	SUB.L   (A5), D2		;
0033C8 9697                 	SUB.L   (A7), D3		;
0033CA 9899                 	SUB.L   D4, (A1)+		;
0033CC 9A9B                 	SUB.L   D5, (A3)+		;
0033CE A0A1                 	???    		;
0033D0 A2A3                 	???    		;
0033D2 A4A5                 	???    		;
0033D4 A6A7                 	???    		;
0033D6 A8A9                 	???    		;
0033D8 AAAB                 	???    		;
0033DA B0B1         B2B3    	CMP.L   (#$B3,A1,A3), D0		;
0033DE B4B5         B6B7    	CMP.L   (#$B7,A5,A3), D2		;
0033E2 B8B9         BABBC0C1	CMP.L   $BABBC0C1.L, D4		;
0033E8 C2C3                 	MULU    D3, D1		;
0033EA C4C5                 	MULU    D5, D2		;
0033EC C6C7                 	MULU    D7, D3		;
0033EE C8C9                 	MULU    A1, D4		;
0033F0 CACB                 	MULU    A3, D5		;
0033F2 D0D1                 	ADDA.W  (A1), A0		;
0033F4 D2D3                 	ADDA.W  (A3), A1		;
0033F6 D4D5                 	ADDA.W  (A5), A2		;
0033F8 D6D7                 	ADDA.W  (A7), A3		;
0033FA D8D9                 	ADDA.W  (A1)+, A4		;
0033FC DADB                 	ADDA.W  (A3)+, A5		;
0033FE E0E1                 	ASR   -(A1)		;
003400 E2E3                 	LSR   -(A3)		;
003402 E4E5                 	ROXR  -(A5)		;
003404 E6E7                 	ROR   -(A7)		;
003406 E8E9         EAEB    	???  	(#$EAEB,A1)		;
00340A F0F1                 	???    		;
00340C F2F3                 	???    		;
00340E F4F5                 	???    		;
003410 F6F7                 	???    		;
003412 F8F9                 	???    		;
003414 FAFB                 	???    		;
003416 0001 0203            	ORI.B   #$0203, D1 			;
00341A 0405 0607            	SUBI.B  #$0607, D5			;
00341E 0809 0A0B            	BTST    #$A0B, A1			;
003422 1011                 	MOVE.B  (A1),D0 		;
003424 1213                 	MOVE.B  (A3),D1 		;
003426 1415                 	MOVE.B  (A5),D2 		;
003428 1617                 	MOVE.B  (A7),D3 		;
00342A 1819                 	MOVE.B  (A1)+,D4 		;
00342C 1A1B                 	MOVE.B  (A3)+,D5 		;
00342E 2021                 	MOVE.L  -(A1),D0 		;
003430 2223                 	MOVE.L  -(A3),D1 		;
003432 2425                 	MOVE.L  -(A5),D2 		;
003434 2627                 	MOVE.L  -(A7),D3 		;
003436 2829 2A2B            	MOVE.L  (#$2A2B,A1),D4 		;
00343A 3031 3233            	MOVE.W  (#$33,A1,D3),D0 		;
00343E 3435 3637            	MOVE.W  (#$37,A5,D3),D2 		;
003442 3839 3A3B4041        	MOVE.W  $3A3B4041.L,D4 		;
003448 4243                 	CLR     D3		;
00344A 4445                 	NEG     D5		;
00344C 4647                 	NOT    	D7		;
00344E 4849                 	PEA     A1		;
003450 4A4B                 	TST.W   A3			;
003452 5051                 	ADDQ.W  #$0, (A1)			;
003454 5253                 	ADDQ.W  #$1, (A3)			;
003456 5455                 	ADDQ.W  #$2, (A5)			;
003458 5657                 	ADDQ.W  #$3, (A7)			;
00345A 5859                 	ADDQ.W  #$4, (A1)+			;
00345C 5A5B                 	ADDQ.W  #$5, (A3)+			;
00345E 6061                 	BRA     #$0061				;
003460 6263                 	BLS     #$0063				;
003462 6465                 	BCC     #$0065				;
003464 6667                 	BNE     #$0067				;
003466 6869                 	BVC     #$0069				;
003468 6A6B                 	BPL     #$006B				;
00346A 7071                 	MOVEQ   #$71, D0			;
00346C 7273                 	MOVEQ   #$73, D1			;
00346E 7475                 	MOVEQ   #$75, D2			;
003470 7677                 	MOVEQ   #$77, D3			;
003472 7879                 	MOVEQ   #$79, D4			;
003474 7A7B                 	MOVEQ   #$7B, D5			;
003476 0000 0001            	ORI.B   #$0001, D0 			;
00347A 0102                 	BTST    D0, D2 		;
00347C 0203 0304            	ANDI.B  #$0304, D3			;
003480 0405 0506            	SUBI.B  #$0506, D5			;
003484 0606 0707            	ADDI.B  #$0707, D6			;
003488 0808 0909            	BTST    #$00000909, A0			;
00348C 0A0A 0B0B            		EORI.B  #$0B0B, A2			;
003490 0C0C 0D0D            	CMPI.B  #$0D0D, A4			;
003494 0D0E 0E0F            	MOVEP   (#$0E0F,A6), D6 		;
003498 0F10                 	BTST    D7, (A0) 		;
00349A 1011                 	MOVE.B  (A1),D0 		;
00349C 1112                 	MOVE.B  (A2),-(A0) 		;
00349E 1213                 	MOVE.B  (A3),D1 		;
0034A0 1314                 	MOVE.B  (A4),-(A1) 		;
0034A2 1415                 	MOVE.B  (A5),D2 		;
0034A4 1515                 	MOVE.B  (A5),-(A2) 		;
0034A6 1616                 	MOVE.B  (A6),D3 		;
0034A8 1717                 	MOVE.B  (A7),-(A3) 		;
0034AA 1818                 	MOVE.B  (A0)+,D4 		;
0034AC 1919                 	MOVE.B  (A1)+,-(A4) 		;
0034AE 1A1A                 	MOVE.B  (A2)+,D5 		;
0034B0 1B1B                 	MOVE.B  (A3)+,-(A5) 		;
0034B2 1C1C                 	MOVE.B  (A4)+,D6 		;
0034B4 1D1D                 	MOVE.B  (A5)+,-(A6) 		;
0034B6 1E1E                 	MOVE.B  (A6)+,D7 		;
0034B8 1E1F                 	MOVE.B  (A7)+,D7 		;
0034BA 1F20                 	MOVE.B  -(A0),-(A7) 		;
0034BC 2021                 	MOVE.L  -(A1),D0 		;
0034BE 2122                 	MOVE.L  -(A2),-(A0) 		;
0034C0 2223                 	MOVE.L  -(A3),D1 		;
0034C2 2324                 	MOVE.L  -(A4),-(A1) 		;
0034C4 2425                 	MOVE.L  -(A5),D2 		;
0034C6 2526                 	MOVE.L  -(A6),-(A2) 		;
0034C8 2627                 	MOVE.L  -(A7),D3 		;
0034CA 2728 2829            	MOVE.L  (#$2829,A0),-(A3) 		;
0034CE 2929 2A2A            	MOVE.L  (#$2A2A,A1),-(A4) 		;
0034D2 2B2B 2C2C            	MOVE.L  (#$2C2C,A3),-(A5) 		;
0034D6 2D2D 2E2E            	MOVE.L  (#$2E2E,A5),-(A6) 		;
0034DA 2F2F 3030            	MOVE.L  (#$3030,A7),-(A7) 		;
0034DE 3131 3232            	MOVE.W  (#$32,A1,D3),-(A0) 		;
0034E2 3333 3434            	MOVE.W  (#$34,A3,D3),-(A1) 		;
0034E6 3535 3636            	MOVE.W  (#$36,A5,D3),-(A2) 		;
0034EA 3737 3838            	MOVE.W  (#$38,A7,D3),-(A3) 		;
0034EE 3839 393A3A3B        	MOVE.W  $393A3A3B.L,D4 		;
0034F4 3B3C 3C3D            	MOVE.W  #$00003C3D,-(A5) 		;
0034F8 3D3E 3E3F            	MOVE.W  #$00003E3F,-(A6) 		;
0034FC 3F40         4041    	MOVE.W  D0,(#$4041,A7) 		;
003500 4142                 	???     		;
003502 4243                 	CLR     D3		;
003504 4344                 	???     		;
003506 4445                 	NEG     D5		;
003508 4546                 	???     		;
00350A 4647                 	NOT    	D7		;
00350C 4748                 	???     		;
00350E 4849                 	PEA     A1		;
003510 494A                 	???     		;
003512 4A4B                 	TST.W   A3			;
003514 4B4C                 	???     		;
003516 4C4D                 	???     		;
003518 4D4E                 	???     		;
00351A 4E4F                 	TRAP    #15		;
00351C 4F50                 	???     		;
00351E 5051                 	ADDQ.W  #$0, (A1)			;
003520 5152                 	SUBQ.W  #$0, (A2)			;
003522 5253                 	ADDQ.W  #$1, (A3)			;
003524 5354                 	SUBQ.W  #$1, (A4)			;
003526 5455                 	ADDQ.W  #$2, (A5)			;
003528 5556                 	SUBQ.W  #$2, (A6)			;
00352A 5657                 	ADDQ.W  #$3, (A7)			;
00352C 5758                 	SUBQ.W  #$3, (A0)+			;
00352E 5859                 	ADDQ.W  #$4, (A1)+			;
003530 595A                 	SUBQ.W  #$4, (A2)+			;
003532 5A5B                 	ADDQ.W  #$5, (A3)+			;
003534 5B5C                 	SUBQ.W  #$5, (A4)+			;
003536 5C5D                 	ADDQ.W  #$6, (A5)+			;
003538 5D5E                 	SUBQ.W  #$6, (A6)+			;
00353A 5E5F                 	ADDQ.W  #$7, (A7)+			;
00353C 5F60                 	SUBQ.W  #$7, -(A0)			;
00353E 6061                 	BRA     #$0061				;
003540 6162                 	BRS     #$0062				;
003542 6263                 	BLS     #$0063				;
003544 6364                 	BHI     #$0064				;
003546 6465                 	BCC     #$0065				;
003548 6566                 	BCS     #$0066				;
00354A 6667                 	BNE     #$0067				;
00354C 6768                 	BEQ     #$0068				;
00354E 6869                 	BVC     #$0069				;
003550 696A                 	BVS     #$006A				;
003552 6A6B                 	BPL     #$006B				;
003554 6B6C                 	BMI     #$006C				;
003556 6C6D                 	BGE     #$006D				;
003558 6D6E                 	BLT     #$006E				;
00355A 6E6F                 	BGT     #$006F				;
00355C 6F70                 	BLE     #$0070				;
00355E 7171                 	MOVEQ   #$71, D0			;
003560 7272                 	MOVEQ   #$72, D1			;
003562 7373                 	MOVEQ   #$73, D1			;
003564 7474                 	MOVEQ   #$74, D2			;
003566 7575                 	MOVEQ   #$75, D2			;
003568 7676                 	MOVEQ   #$76, D3			;
00356A 7777                 	MOVEQ   #$77, D3			;
00356C 7878                 	MOVEQ   #$78, D4			;
00356E 7979                 	MOVEQ   #$79, D4			;
003570 7A7A                 	MOVEQ   #$7A, D5			;
003572 7B7B                 	MOVEQ   #$7B, D5			;
003574 7C7C                 	MOVEQ   #$7C, D6			;
003576 7D7D                 	MOVEQ   #$7D, D6			;
003578 7E7E                 	MOVEQ   #$7E, D7			;
00357A 7F7F                 	MOVEQ   #$7F, D7			;
00357C 8081                 	OR.L    D1, D0		;
00357E 8182                 	OR.L    D2, D0		;
003580 8283                 	OR.L    D3, D1		;
003582 8384                 	OR.L    D4, D1		;
003584 8485                 	OR.L    D5, D2		;
003586 8586                 	OR.L    D6, D2		;
003588 8687                 	OR.L    D7, D3		;
00358A 8788                 	OR.L    D3, A0		;
00358C 8889                 	OR.L    D4, A1		;
00358E 898A                 	OR.L    D4, A2		;
003590 8A8B                 	OR.L    D5, A3		;
003592 8C8C                 	OR.L    D6, A4		;
003594 8D8D                 	OR.L    D6, A5		;
003596 8E8E                 	OR.L    D7, A6		;
003598 8F8F                 	OR.L    D7, A7		;
00359A 9090                 	SUB.L   (A0), D0		;
00359C 9191                 	SUB.L   (A1), D0		;
00359E 9292                 	SUB.L   (A2), D1		;
0035A0 9393                 	SUB.L   (A3), D1		;
0035A2 9494                 	SUB.L   (A4), D2		;
0035A4 9596                 	SUB.L   (A6), D2		;
0035A6 9697                 	SUB.L   (A7), D3		;
0035A8 9798                 	SUB.L   D3, (A0)+		;
0035AA 9899                 	SUB.L   D4, (A1)+		;
0035AC 999A                 	SUB.L   D4, (A2)+		;
0035AE 9A9B                 	SUB.L   D5, (A3)+		;
0035B0 9B9C                 	SUB.L   D5, (A4)+		;
0035B2 9C9D                 	SUB.L   D6, (A5)+		;
0035B4 9E9E                 	SUB.L   D7, (A6)+		;
0035B6 9F9F                 	SUB.L   D7, (A7)+		;
0035B8 A0A0                 	???    		;
0035BA A1A1                 	???    		;
0035BC A2A2                 	???    		;
0035BE A3A3                 	???    		;
0035C0 A4A4                 	???    		;
0035C2 A5A6                 	???    		;
0035C4 A6A7                 	???    		;
0035C6 A7A8                 	???    		;
0035C8 A8A9                 	???    		;
0035CA A9AA                 	???    		;
0035CC AAAB                 	???    		;
0035CE ABAC                 	???    		;
0035D0 ADAD                 	???    		;
0035D2 AEAE                 	???    		;
0035D4 AFAF                 	???    		;
0035D6 B0B0         B1B1    	CMP.L   (#$B1,A0,A3), D0		;
0035DA B2B3         B3B4    	CMP.L   (#$B4,A3,A3), D1		;
0035DE B4B5         B5B6    	CMP.L   (#$B6,A5,A3), D2		;
0035E2 B6B7         B7B8    	CMP.L   (#$B8,A7,A3), D3		;
0035E6 B8B9         BABABBBB	CMP.L   $BABABBBB.L, D4		;
0035EC BCBC         BDBDBEBF	CMP.L   #$BDBDBEBF, D6		;
0035F2 BFC0                 	CMPA.L  D0, A7		;
0035F4 C0C1                 	MULU    D1, D0		;
0035F6 C1C2                 	MULS    D2, D0		;
0035F8 C2C3                 	MULU    D3, D1		;
0035FA C3C4                 	MULS    D4, D1		;
0035FC C5C5                 	MULS    D5, D2		;
0035FE C6C6                 	MULU    D6, D3		;
003600 C7C7                 	MULS    D7, D3		;
003602 C8C8                 	MULU    A0, D4		;
003604 C9CA                 	MULS    A2, D4		;
003606 CACB                 	MULU    A3, D5		;
003608 CBCC                 	MULS    A4, D5		;
00360A CCCD                 	MULU    A5, D6		;
00360C CDCE                 	MULS    A6, D6		;
00360E CFCF                 	MULS    A7, D7		;
003610 D0D0                 	ADDA.W  (A0), A0		;
003612 D1D1                 	ADDA.L  (A1), A0		;
003614 D2D2                 	ADDA.W  (A2), A1		;
003616 D3D4                 	ADDA.L  (A4), A1		;
003618 D4D5                 	ADDA.W  (A5), A2		;
00361A D5D6                 	ADDA.L  (A6), A2		;
00361C D6D7                 	ADDA.W  (A7), A3		;
00361E D7D8                 	ADDA.L  (A0)+, A3		;
003620 D9D9                 	ADDA.L  (A1)+, A4		;
003622 DADA                 	ADDA.W  (A2)+, A5		;
003624 DBDB                 	ADDA.L  (A3)+, A5		;
003626 DCDC                 	ADDA.W  (A4)+, A6		;
003628 DDDE                 	ADDA.L  (A6)+, A6		;
00362A DEDF                 	ADDA.W  (A7)+, A7		;
00362C DFE0                 	ADDA.L  -(A0), A7		;
00362E E0E1                 	ASR   -(A1)		;
003630 E2E2                 	LSR   -(A2)		;
003632 E3E3                 	LSL   -(A3)		;
003634 E4E4                 	ROXR  -(A4)		;
003636 E5E5                 	ROXL  -(A5)		;
003638 E6E7                 	ROR   -(A7)		;
00363A E7E8         E8E9    	ROL   (#$E8E9,A0)		;
00363E E9EA         EBEB    	???  	(#$EBEB,A2)		;
003642 ECEC         EDED    	???  	(#$EDED,A4)		;
003646 EEEF         EFF0    	???  	(#$EFF0,A7)		;
00364A F0F1                 	???    		;
00364C F1F2                 	???    		;
00364E F3F3                 	???    		;
003650 F4F4                 	???    		;
003652 F5F5                 	???    		;
003654 F6F7                 	???    		;
003656 F7F8                 	???    		;
003658 F8F9                 	???    		;
00365A F9FA                 	???    		;
00365C FBFB                 	???    		;
00365E FCFC                 	???    		;
003660 FDFD                 	???    		;
003662 FEFF                 	???    		;
003664 FF00                 	???    		;
003666 0001 0202            	ORI.B   #$0202, D1 			;
00366A 0303                 	BTST    D1, D3 		;
00366C 0404 0506            	SUBI.B  #$0506, D4			;
003670 0607 0708            	ADDI.B  #$0708, D7			;
003674 0809 0A0A            	BTST    #$A0A, A1			;
003678 0B0B 0C0D            	MOVEP   (#$0C0D,A3), D5 		;
00367C 0D0E 0E0F            	MOVEP   (#$0E0F,A6), D6 		;
003680 0F10                 	BTST    D7, (A0) 		;
003682 1111                 	MOVE.B  (A1),-(A0) 		;
003684 1212                 	MOVE.B  (A2),D1 		;
003686 1314                 	MOVE.B  (A4),-(A1) 		;
003688 1415                 	MOVE.B  (A5),D2 		;
00368A 1516                 	MOVE.B  (A6),-(A2) 		;
00368C 1717                 	MOVE.B  (A7),-(A3) 		;
00368E 1818                 	MOVE.B  (A0)+,D4 		;
003690 1919                 	MOVE.B  (A1)+,-(A4) 		;
003692 1A1B                 	MOVE.B  (A3)+,D5 		;
003694 1B1C                 	MOVE.B  (A4)+,-(A5) 		;
003696 1C1D                 	MOVE.B  (A5)+,D6 		;
003698 1E1E                 	MOVE.B  (A6)+,D7 		;
00369A 1F1F                 	MOVE.B  (A7)+,-(A7) 		;
00369C 2021                 	MOVE.L  -(A1),D0 		;
00369E 2122                 	MOVE.L  -(A2),-(A0) 		;
0036A0 2223                 	MOVE.L  -(A3),D1 		;
0036A2 2424                 	MOVE.L  -(A4),D2 		;
0036A4 2525                 	MOVE.L  -(A5),-(A2) 		;
0036A6 2627                 	MOVE.L  -(A7),D3 		;
0036A8 2728 2829            	MOVE.L  (#$2829,A0),-(A3) 		;
0036AC 292A 2B2B            	MOVE.L  (#$2B2B,A2),-(A4) 		;
0036B0 2C2C 2D2E            	MOVE.L  (#$2D2E,A4),D6 		;
0036B4 2E2F 2F30            	MOVE.L  (#$2F30,A7),D7 		;
0036B8 3131 3232            	MOVE.W  (#$32,A1,D3),-(A0) 		;
0036BC 3334 3435            	MOVE.W  (#$35,A4,D3),-(A1) 		;
0036C0 3536 3737            	MOVE.W  (#$37,A6,D3),-(A2) 		;
0036C4 3838 393A            	MOVE.W  $393A.W,D4 		;
0036C8 3A3B 3C3C            	MOVE.W  (#$3C,PC,D3),D5 		;
0036CC 3D3D 3E3F            	MOVE.W  #$00003E3F,-(A6) 		;
0036D0 3F40         4041    	MOVE.W  D0,(#$4041,A7) 		;
0036D4 4242                 	CLR     D2		;
0036D6 4343                 	???     		;
0036D8 4445                 	NEG     D5		;
0036DA 4546                 	???     		;
0036DC 4647                 	NOT    	D7		;
0036DE 4848                 	PEA     A0		;
0036E0 4949                 	???     		;
0036E2 4A4B                 	TST.W   A3			;
0036E4 4B4C                 	???     		;
0036E6 4D4D                 	???     		;
0036E8 4E4E                 	TRAP    #14		;
0036EA 4F50                 	???     		;
0036EC 5051                 	ADDQ.W  #$0, (A1)			;
0036EE 5152                 	SUBQ.W  #$0, (A2)			;
0036F0 5353                 	SUBQ.W  #$1, (A3)			;
0036F2 5455                 	ADDQ.W  #$2, (A5)			;
0036F4 5556                 	SUBQ.W  #$2, (A6)			;
0036F6 5657                 	ADDQ.W  #$3, (A7)			;
0036F8 5858                 	ADDQ.W  #$4, (A0)+			;
0036FA 5959                 	SUBQ.W  #$4, (A1)+			;
0036FC 5A5B                 	ADDQ.W  #$5, (A3)+			;
0036FE 5B5C                 	SUBQ.W  #$5, (A4)+			;
003700 5D5D                 	SUBQ.W  #$6, (A5)+			;
003702 5E5E                 	ADDQ.W  #$7, (A6)+			;
003704 5F60                 	SUBQ.W  #$7, -(A0)			;
003706 6061                 	BRA     #$0061				;
003708 6262                 	BLS     #$0062				;
00370A 6363                 	BHI     #$0063				;
00370C 6465                 	BCC     #$0065				;
00370E 6566                 	BCS     #$0066				;
003710 6767                 	BEQ     #$0067				;
003712 6868                 	BVC     #$0068				;
003714 696A                 	BVS     #$006A				;
003716 6A6B                 	BPL     #$006B				;
003718 6C6C                 	BGE     #$006C				;
00371A 6D6D                 	BLT     #$006D				;
00371C 6E6F                 	BGT     #$006F				;
00371E 6F70                 	BLE     #$0070				;
003720 7171                 	MOVEQ   #$71, D0			;
003722 7272                 	MOVEQ   #$72, D1			;
003724 7374                 	MOVEQ   #$74, D1			;
003726 7475                 	MOVEQ   #$75, D2			;
003728 7676                 	MOVEQ   #$76, D3			;
00372A 7777                 	MOVEQ   #$77, D3			;
00372C 7879                 	MOVEQ   #$79, D4			;
00372E 797A                 	MOVEQ   #$7A, D4			;
003730 7B7B                 	MOVEQ   #$7B, D5			;
003732 7C7D                 	MOVEQ   #$7D, D6			;
003734 7D7E                 	MOVEQ   #$7E, D6			;
003736 7E7F                 	MOVEQ   #$7F, D7			;
003738 8080                 	OR.L    D0, D0		;
00373A 8182                 	OR.L    D2, D0		;
00373C 8283                 	OR.L    D3, D1		;
00373E 8484                 	OR.L    D4, D2		;
003740 8585                 	OR.L    D5, D2		;
003742 8687                 	OR.L    D7, D3		;
003744 8788                 	OR.L    D3, A0		;
003746 8989                 	OR.L    D4, A1		;
003748 8A8B                 	OR.L    D5, A3		;
00374A 8B8C                 	OR.L    D5, A4		;
00374C 8C8D                 	OR.L    D6, A5		;
00374E 8E8E                 	OR.L    D7, A6		;
003750 8F90                 	OR.L    (A0), D7		;
003752 9091                 	SUB.L   (A1), D0		;
003754 9292                 	SUB.L   (A2), D1		;
003756 9394                 	SUB.L   (A4), D1		;
003758 9495                 	SUB.L   (A5), D2		;
00375A 9596                 	SUB.L   (A6), D2		;
00375C 9797                 	SUB.L   (A7), D3		;
00375E 9899                 	SUB.L   D4, (A1)+		;
003760 999A                 	SUB.L   D4, (A2)+		;
003762 9B9B                 	SUB.L   D5, (A3)+		;
003764 9C9D                 	SUB.L   D6, (A5)+		;
003766 9D9E                 	SUB.L   D6, (A6)+		;
003768 9F9F                 	SUB.L   D7, (A7)+		;
00376A A0A0                 	???    		;
00376C A1A2                 	???    		;
00376E A2A3                 	???    		;
003770 A4A4                 	???    		;
003772 A5A6                 	???    		;
003774 A6A7                 	???    		;
003776 A8A8                 	???    		;
003778 A9AA                 	???    		;
00377A AAAB                 	???    		;
00377C ACAC                 	???    		;
00377E ADAE                 	???    		;
003780 AEAF                 	???    		;
003782 B0B0         B1B1    	CMP.L   (#$B1,A0,A3), D0		;
003786 B2B3         B3B4    	CMP.L   (#$B4,A3,A3), D1		;
00378A B5B5         B6B7    	EOR.L   (#$B7,A5,A3), D2		;
00378E B7B8         B9B9    	EOR.L   $B9B9.W, D3		;
003792 BABB         BBBC    	CMP.L   (#$BC,PC,A3), D5		;
003796 BDBD         BEBF    	EOR.L   #$0000BEBF, D6		;
00379A BFC0                 	CMPA.L  D0, A7		;
00379C C1C1                 	MULS    D1, D0		;
00379E C2C3                 	MULU    D3, D1		;
0037A0 C3C4                 	MULS    D4, D1		;
0037A2 C5C5                 	MULS    D5, D2		;
0037A4 C6C7                 	MULU    D7, D3		;
0037A6 C7C8                 	MULS    A0, D3		;
0037A8 C9C9                 	MULS    A1, D4		;
0037AA CACB                 	MULU    A3, D5		;
0037AC CBCC                 	MULS    A4, D5		;
0037AE CDCD                 	MULS    A5, D6		;
0037B0 CECF                 	MULU    A7, D7		;
0037B2 CFD0                 	MULS    (A0), D7		;
0037B4 D1D1                 	ADDA.L  (A1), A0		;
0037B6 D2D3                 	ADDA.W  (A3), A1		;
0037B8 D3D4                 	ADDA.L  (A4), A1		;
0037BA D5D5                 	ADDA.L  (A5), A2		;
0037BC D6D7                 	ADDA.W  (A7), A3		;
0037BE D7D8                 	ADDA.L  (A0)+, A3		;
0037C0 D9DA                 	ADDA.L  (A2)+, A4		;
0037C2 DADB                 	ADDA.W  (A3)+, A5		;
0037C4 DCDC                 	ADDA.W  (A4)+, A6		;
0037C6 DDDE                 	ADDA.L  (A6)+, A6		;
0037C8 DEDF                 	ADDA.W  (A7)+, A7		;
0037CA E0E0                 	ASR   -(A0)		;
0037CC E1E2                 	ASL   -(A2)		;
0037CE E2E3                 	LSR   -(A3)		;
0037D0 E4E4                 	ROXR  -(A4)		;
0037D2 E5E6                 	ROXL  -(A6)		;
0037D4 E6E7                 	ROR   -(A7)		;
0037D6 E8E8         E9EA    	???  	(#$E9EA,A0)		;
0037DA EBEB         ECED    	???  	(#$ECED,A3)		;
0037DE EDEE         EFEF    	???  	(#$EFEF,A6)		;
0037E2 F0F1                 	???    		;
0037E4 F1F2                 	???    		;
0037E6 F3F3                 	???    		;
0037E8 F4F5                 	???    		;
0037EA F5F6                 	???    		;
0037EC F7F8                 	???    		;
0037EE F8F9                 	???    		;
0037F0 FAFA                 	???    		;
0037F2 FBFC                 	???    		;
0037F4 FCFD                 	???    		;
0037F6 FEFE                 	???    		;
0037F8 FF00                 	???    		;
0037FA 0101                 	BTST    D0, D1 		;
0037FC 0203 0304            	ANDI.B  #$0304, D3			;
003800 0505                 	BTST    D2, D5 		;
003802 0607 0708            	ADDI.B  #$0708, D7			;
003806 090A 0A0B            	MOVEP   (#$0A0B,A2), D4 		;
00380A 0C0C 0D0E            	CMPI.B  #$0D0E, A4			;
00380E 0E0F ???     		;
003810 1011                 	MOVE.B  (A1),D0 		;
003812 1112                 	MOVE.B  (A2),-(A0) 		;
003814 1313                 	MOVE.B  (A3),-(A1) 		;
003816 1415                 	MOVE.B  (A5),D2 		;
003818 1516                 	MOVE.B  (A6),-(A2) 		;
00381A 1718                 	MOVE.B  (A0)+,-(A3) 		;
00381C 1819                 	MOVE.B  (A1)+,D4 		;
00381E 1A1A                 	MOVE.B  (A2)+,D5 		;
003820 1B1C                 	MOVE.B  (A4)+,-(A5) 		;
003822 1D1D                 	MOVE.B  (A5)+,-(A6) 		;
003824 1E1F                 	MOVE.B  (A7)+,D7 		;
003826 1F20                 	MOVE.B  -(A0),-(A7) 		;
003828 2121                 	MOVE.L  -(A1),-(A0) 		;
00382A 2223                 	MOVE.L  -(A3),D1 		;
00382C 2424                 	MOVE.L  -(A4),D2 		;
00382E 2526                 	MOVE.L  -(A6),-(A2) 		;
003830 2627                 	MOVE.L  -(A7),D3 		;
003832 2829 292A            	MOVE.L  (#$292A,A1),D4 		;
003836 2B2B 2C2D            	MOVE.L  (#$2C2D,A3),-(A5) 		;
00383A 2E2E 2F30            	MOVE.L  (#$2F30,A6),D7 		;
00383E 3031 3233            	MOVE.W  (#$33,A1,D3),D0 		;
003842 3334 3535            	MOVE.W  (#$35,A4,D3),-(A1) 		;
003846 3637 3838            	MOVE.W  (#$38,A7,D3),D3 		;
00384A 393A 3A3B            	MOVE.W  (#$3A3B,PC),-(A4) 		;
00384E 3C3D 3D3E            	MOVE.W  #$00003D3E,D6 		;
003852 3F40         4041    	MOVE.W  D0,(#$4041,A7) 		;
003856 4242                 	CLR     D2		;
003858 4344                 	???     		;
00385A 4545                 	???     		;
00385C 4647                 	NOT    	D7		;
00385E 4748                 	???     		;
003860 494A                 	???     		;
003862 4A4B                 	TST.W   A3			;
003864 4C4D                 	???     		;
003866 4D4E                 	???     		;
003868 4F4F                 	???     		;
00386A 5051                 	ADDQ.W  #$0, (A1)			;
00386C 5252                 	ADDQ.W  #$1, (A2)			;
00386E 5354                 	SUBQ.W  #$1, (A4)			;
003870 5555                 	SUBQ.W  #$2, (A5)			;
003872 5657                 	ADDQ.W  #$3, (A7)			;
003874 5858                 	ADDQ.W  #$4, (A0)+			;
003876 595A                 	SUBQ.W  #$4, (A2)+			;
003878 5A5B                 	ADDQ.W  #$5, (A3)+			;
00387A 5C5D                 	ADDQ.W  #$6, (A5)+			;
00387C 5D5E                 	SUBQ.W  #$6, (A6)+			;
00387E 5F60                 	SUBQ.W  #$7, -(A0)			;
003880 6061                 	BRA     #$0061				;
003882 6263                 	BLS     #$0063				;
003884 6364                 	BHI     #$0064				;
003886 6566                 	BCS     #$0066				;
003888 6667                 	BNE     #$0067				;
00388A 6868                 	BVC     #$0068				;
00388C 696A                 	BVS     #$006A				;
00388E 6B6B                 	BMI     #$006B				;
003890 6C6D                 	BGE     #$006D				;
003892 6E6E                 	BGT     #$006E				;
003894 6F70                 	BLE     #$0070				;
003896 7171                 	MOVEQ   #$71, D0			;
003898 7273                 	MOVEQ   #$73, D1			;
00389A 7474                 	MOVEQ   #$74, D2			;
00389C 7576                 	MOVEQ   #$76, D2			;
00389E 7777                 	MOVEQ   #$77, D3			;
0038A0 7879                 	MOVEQ   #$79, D4			;
0038A2 7A7A                 	MOVEQ   #$7A, D5			;
0038A4 7B7C                 	MOVEQ   #$7C, D5			;
0038A6 7D7D                 	MOVEQ   #$7D, D6			;
0038A8 7E7F                 	MOVEQ   #$7F, D7			;
0038AA 8080                 	OR.L    D0, D0		;
0038AC 8182                 	OR.L    D2, D0		;
0038AE 8383                 	OR.L    D3, D1		;
0038B0 8485                 	OR.L    D5, D2		;
0038B2 8686                 	OR.L    D6, D3		;
0038B4 8788                 	OR.L    D3, A0		;
0038B6 8989                 	OR.L    D4, A1		;
0038B8 8A8B                 	OR.L    D5, A3		;
0038BA 8C8C                 	OR.L    D6, A4		;
0038BC 8D8E                 	OR.L    D6, A6		;
0038BE 8F8F                 	OR.L    D7, A7		;
0038C0 9091                 	SUB.L   (A1), D0		;
0038C2 9292                 	SUB.L   (A2), D1		;
0038C4 9394                 	SUB.L   (A4), D1		;
0038C6 9596                 	SUB.L   (A6), D2		;
0038C8 9697                 	SUB.L   (A7), D3		;
0038CA 9899                 	SUB.L   D4, (A1)+		;
0038CC 999A                 	SUB.L   D4, (A2)+		;
0038CE 9B9C                 	SUB.L   D5, (A4)+		;
0038D0 9C9D                 	SUB.L   D6, (A5)+		;
0038D2 9E9F                 	SUB.L   D7, (A7)+		;
0038D4 9FA0                 	SUB.L   -(A0), D7		;
0038D6 A1A2                 	???    		;
0038D8 A2A3                 	???    		;
0038DA A4A5                 	???    		;
0038DC A6A6                 	???    		;
0038DE A7A8                 	???    		;
0038E0 A9A9                 	???    		;
0038E2 AAAB                 	???    		;
0038E4 ACAC                 	???    		;
0038E6 ADAE                 	???    		;
0038E8 AFB0                 	???    		;
0038EA B0B1         B2B3    	CMP.L   (#$B3,A1,A3), D0		;
0038EE B3B4         B5B6    	EOR.L   (#$B6,A4,A3), D1		;
0038F2 B7B7         B8B9    	EOR.L   (#$B9,A7,A3), D3		;
0038F6 BABA         BBBC    	CMP.L   (#$BBBC,PC), D5		;
0038FA BDBE         BEBF    	EOR.L   #$0000BEBF, D6		;
0038FE C0C1                 	MULU    D1, D0		;
003900 C1C2                 	MULS    D2, D0		;
003902 C3C4                 	MULS    D4, D1		;
003904 C5C5                 	MULS    D5, D2		;
003906 C6C7                 	MULU    D7, D3		;
003908 C8C8                 	MULU    A0, D4		;
00390A C9CA                 	MULS    A2, D4		;
00390C CBCC                 	MULS    A4, D5		;
00390E CCCD                 	MULU    A5, D6		;
003910 CECF                 	MULU    A7, D7		;
003912 D0D0                 	ADDA.W  (A0), A0		;
003914 D1D2                 	ADDA.L  (A2), A0		;
003916 D3D3                 	ADDA.L  (A3), A1		;
003918 D4D5                 	ADDA.W  (A5), A2		;
00391A D6D7                 	ADDA.W  (A7), A3		;
00391C D7D8                 	ADDA.L  (A0)+, A3		;
00391E D9DA                 	ADDA.L  (A2)+, A4		;
003920 DBDB                 	ADDA.L  (A3)+, A5		;
003922 DCDD                 	ADDA.W  (A5)+, A6		;
003924 DEDF                 	ADDA.W  (A7)+, A7		;
003926 DFE0                 	ADDA.L  -(A0), A7		;
003928 E1E2                 	ASL   -(A2)		;
00392A E3E3                 	LSL   -(A3)		;
00392C E4E5                 	ROXR  -(A5)		;
00392E E6E7                 	ROR   -(A7)		;
003930 E7E8         E9EA    	ROL   (#$E9EA,A0)		;
003934 EBEB         ECED    	???  	(#$ECED,A3)		;
003938 EEEF         EFF0    	???  	(#$EFF0,A7)		;
00393C F1F2                 	???    		;
00393E F3F3                 	???    		;
003940 F4F5                 	???    		;
003942 F6F7                 	???    		;
003944 F7F8                 	???    		;
003946 F9FA                 	???    		;
003948 FBFB                 	???    		;
00394A FCFD                 	???    		;
00394C FEFF                 	???    		;
00394E FF00                 	???    		;
003950 0102                 	BTST    D0, D2 		;
003952 0303                 	BTST    D1, D3 		;
003954 0405 0607            	SUBI.B  #$0607, D5			;
003958 0808 090A            	BTST    #$0000090A, A0			;
00395C 0B0C 0C0D            	MOVEP   (#$0C0D,A4), D5 		;
003960 0E0F ???     		;
003962 1010                 	MOVE.B  (A0),D0 		;
003964 1112                 	MOVE.B  (A2),-(A0) 		;
003966 1314                 	MOVE.B  (A4),-(A1) 		;
003968 1515                 	MOVE.B  (A5),-(A2) 		;
00396A 1617                 	MOVE.B  (A7),D3 		;
00396C 1819                 	MOVE.B  (A1)+,D4 		;
00396E 191A                 	MOVE.B  (A2)+,-(A4) 		;
003970 1B1C                 	MOVE.B  (A4)+,-(A5) 		;
003972 1D1E                 	MOVE.B  (A6)+,-(A6) 		;
003974 1E1F                 	MOVE.B  (A7)+,D7 		;
003976 2021                 	MOVE.L  -(A1),D0 		;
003978 2223                 	MOVE.L  -(A3),D1 		;
00397A 2324                 	MOVE.L  -(A4),-(A1) 		;
00397C 2526                 	MOVE.L  -(A6),-(A2) 		;
00397E 2727                 	MOVE.L  -(A7),-(A3) 		;
003980 2829 2A2B            	MOVE.L  (#$2A2B,A1),D4 		;
003984 2C2C 2D2E            	MOVE.L  (#$2D2E,A4),D6 		;
003988 2F30 3131            	MOVE.L  (#$31,A0,D3),-(A7) 		;
00398C 3233 3435            	MOVE.W  (#$35,A3,D3),D1 		;
003990 3636 3738            	MOVE.W  (#$38,A6,D3),D3 		;
003994 393A 3B3B            	MOVE.W  (#$3B3B,PC),-(A4) 		;
003998 3C3D 3E3F            	MOVE.W  #$00003E3F,D6 		;
00399C 4040                 	NEGX    D0		;
00399E 4142                 	???     		;
0039A0 4344                 	???     		;
0039A2 4545                 	???     		;
0039A4 4647                 	NOT    	D7		;
0039A6 4849                 	PEA     A1		;
0039A8 4A4B                 	TST.W   A3			;
0039AA 4B4C                 	???     		;
0039AC 4D4E                 	???     		;
0039AE 4F50                 	???     		;
0039B0 5051                 	ADDQ.W  #$0, (A1)			;
0039B2 5253                 	ADDQ.W  #$1, (A3)			;
0039B4 5455                 	ADDQ.W  #$2, (A5)			;
0039B6 5656                 	ADDQ.W  #$3, (A6)			;
0039B8 5758                 	SUBQ.W  #$3, (A0)+			;
0039BA 595A                 	SUBQ.W  #$4, (A2)+			;
0039BC 5B5B                 	SUBQ.W  #$5, (A3)+			;
0039BE 5C5D                 	ADDQ.W  #$6, (A5)+			;
0039C0 5E5F                 	ADDQ.W  #$7, (A7)+			;
0039C2 6061                 	BRA     #$0061				;
0039C4 6162                 	BRS     #$0062				;
0039C6 6364                 	BHI     #$0064				;
0039C8 6566                 	BCS     #$0066				;
0039CA 6767                 	BEQ     #$0067				;
0039CC 6869                 	BVC     #$0069				;
0039CE 6A6B                 	BPL     #$006B				;
0039D0 6C6D                 	BGE     #$006D				;
0039D2 6D6E                 	BLT     #$006E				;
0039D4 6F70                 	BLE     #$0070				;
0039D6 7172                 	MOVEQ   #$72, D0			;
0039D8 7373                 	MOVEQ   #$73, D1			;
0039DA 7475                 	MOVEQ   #$75, D2			;
0039DC 7677                 	MOVEQ   #$77, D3			;
0039DE 7879                 	MOVEQ   #$79, D4			;
0039E0 797A                 	MOVEQ   #$7A, D4			;
0039E2 7B7C                 	MOVEQ   #$7C, D5			;
0039E4 7D7E                 	MOVEQ   #$7E, D6			;
0039E6 7F80                 	MOVEQ   #$80, D7			;
0039E8 8081                 	OR.L    D1, D0		;
0039EA 8283                 	OR.L    D3, D1		;
0039EC 8485                 	OR.L    D5, D2		;
0039EE 8686                 	OR.L    D6, D3		;
0039F0 8788                 	OR.L    D3, A0		;
0039F2 898A                 	OR.L    D4, A2		;
0039F4 8B8C                 	OR.L    D5, A4		;
0039F6 8D8D                 	OR.L    D6, A5		;
0039F8 8E8F                 	OR.L    D7, A7		;
0039FA 9091                 	SUB.L   (A1), D0		;
0039FC 9293                 	SUB.L   (A3), D1		;
0039FE 9494                 	SUB.L   (A4), D2		;
003A00 9596                 	SUB.L   (A6), D2		;
003A02 9798                 	SUB.L   D3, (A0)+		;
003A04 999A                 	SUB.L   D4, (A2)+		;
003A06 9B9B                 	SUB.L   D5, (A3)+		;
003A08 9C9D                 	SUB.L   D6, (A5)+		;
003A0A 9E9F                 	SUB.L   D7, (A7)+		;
003A0C A0A1                 	???    		;
003A0E A2A2                 	???    		;
003A10 A3A4                 	???    		;
003A12 A5A6                 	???    		;
003A14 A7A8                 	???    		;
003A16 A9AA                 	???    		;
003A18 AAAB                 	???    		;
003A1A ACAD                 	???    		;
003A1C AEAF                 	???    		;
003A1E B0B1         B2B2    	CMP.L   (#$B2,A1,A3), D0		;
003A22 B3B4         B5B6    	EOR.L   (#$B6,A4,A3), D1		;
003A26 B7B8         B9BA    	EOR.L   $B9BA.W, D3		;
003A2A BABB         BCBD    	CMP.L   (#$BD,PC,A3), D5		;
003A2E BEBF         C0C1    	CMP.L   #$0000C0C1, D7		;
003A32 C2C3                 	MULU    D3, D1		;
003A34 C3C4                 	MULS    D4, D1		;
003A36 C5C6                 	MULS    D6, D2		;
003A38 C7C8                 	MULS    A0, D3		;
003A3A C9CA                 	MULS    A2, D4		;
003A3C CBCB                 	MULS    A3, D5		;
003A3E CCCD                 	MULU    A5, D6		;
003A40 CECF                 	MULU    A7, D7		;
003A42 D0D1                 	ADDA.W  (A1), A0		;
003A44 D2D3                 	ADDA.W  (A3), A1		;
003A46 D4D5                 	ADDA.W  (A5), A2		;
003A48 D5D6                 	ADDA.L  (A6), A2		;
003A4A D7D8                 	ADDA.L  (A0)+, A3		;
003A4C D9DA                 	ADDA.L  (A2)+, A4		;
003A4E DBDC                 	ADDA.L  (A4)+, A5		;
003A50 DDDE                 	ADDA.L  (A6)+, A6		;
003A52 DEDF                 	ADDA.W  (A7)+, A7		;
003A54 E0E1                 	ASR   -(A1)		;
003A56 E2E3                 	LSR   -(A3)		;
003A58 E4E5                 	ROXR  -(A5)		;
003A5A E6E7                 	ROR   -(A7)		;
003A5C E8E9         E9EA    	???  	(#$E9EA,A1)		;
003A60 EBEC         EDEE    	???  	(#$EDEE,A4)		;
003A64 EFF0         F1F2    	???  	(#$F2,A0,A7)		;
003A68 F3F4                 	???    		;
003A6A F4F5                 	???    		;
003A6C F6F7                 	???    		;
003A6E F8F9                 	???    		;
003A70 FAFB                 	???    		;
003A72 FCFD                 	???    		;
003A74 FEFF                 	???    		;
003A76 0240 00FF            	ANDI.W  #$00FF, D0			;
003A7A 6008                 	BRA     #$0008				;
003A7C 1000                 	MOVE.B  D0,D0 		;
003A7E 6B0C                 	BMI     #$000C				;
003A80 0240 007F            	ANDI.W  #$007F, D0			;
003A84 D040                 	ADD.W   D0, D0		;
003A86 303B 0032            	MOVE.W  (#$32,PC,D0),D0 		;
003A8A 4E75                 	RTS     					;
003A8C 4400                 	NEG     D0		;
003A8E 0240 007F            	ANDI.W  #$007F, D0			;
003A92 D040                 	ADD.W   D0, D0		;
003A94 303B 0024            	MOVE.W  (#$24,PC,D0),D0 		;
003A98 4440                 	NEG     D0		;
003A9A 4E75                 	RTS     					;
003A9C 1000                 	MOVE.B  D0,D0 		;
003A9E 6A0E                 	BPL     #$000E				;
003AA0 0240 007F            	ANDI.W  #$007F, D0			;
003AA4 D040                 	ADD.W   D0, D0		;
003AA6 303B 0012            	MOVE.W  (#$12,PC,D0),D0 		;
003AAA 4440                 	NEG     D0		;
003AAC 4E75                 	RTS     					;
003AAE 0240 007F            	ANDI.W  #$007F, D0			;
003AB2 D040                 	ADD.W   D0, D0		;
003AB4 303B 0004            	MOVE.W  (#$04,PC,D0),D0 		;
003AB8 4E75                 	RTS     					;
003ABA 0000 0001            	ORI.B   #$0001, D0 			;
003ABE 0004 0009            	ORI.B   #$0009, D4 			;
003AC2 0010 0019            	ORI.B   #$0019, (A0) 			;
003AC6 0024 0031            	ORI.B   #$0031, -(A4) 			;
003ACA 0040 0051            	ORI.W   #$0051, D0 			;
003ACE 0064 0079            	ORI.W   #$0079, -(A4) 			;
003AD2 0090 00A900C4        	ORI.L   #$00A900C4, (A0) 			;
003AD8 00E1 01000121        	ORI.?   #$01000121, -(A1) 			;
003ADE 0144                 	BCHG    D0, D4 		;
003AE0 0169         0190    	BCHG    D0, (#$000E,A1) 		;
003AE4 01B9         01E40211	BCLR    D0, $0000000E.L 		;
003AEA 0240 0271            	ANDI.W  #$0271, D0			;
003AEE 02A4 02D90310        	ANDI.L  #$02D90310, -(A4)			;
003AF4 0349 0384            	MOVEP   (#$0384,A1), D1 		;
003AF8 03C1                 	BSET    D1, D1 		;
003AFA 0400 0441            	SUBI.B  #$0441, D0			;
003AFE 0484 04C90510        	SUBI.L  #$04C90510, D4			;
003B04 0559                 	BCHG    D2, (A1)+ 		;
003B06 05A4                 	BCLR    D2, -(A4) 		;
003B08 05F1         0640    	BSET    D2, (#$0E,A1,D0) 		;
003B0C 0691 06E40739        	ADDI.L  #$06E40739, (A1)			;
003B12 0790                 	BCLR    D3, (A0) 		;
003B14 07E9         0844    	BSET    D3, (#$000E,A1) 		;
003B18 08A1 0900            	BCLR    #$900, -(A1)			;
003B1C 0961                 	BCHG    D4, -(A1) 		;
003B1E 09C4                 	BSET    D4, D4 		;
003B20 0A29 0A90    0AF9    	EORI.B  #$0AF9, (#$0900,A1)			;
003B26 0B64                 	BCHG    D5, -(A4) 		;
003B28 0BD1                 	BSET    D5, (A1) 		;
003B2A 0C40 0CB1            	CMPI.W  #$0CB1, D0			;
003B2E 0D24                 	BTST    D6, -(A4) 		;
003B30 0D99                 	BCLR    D6, (A1)+ 		;
003B32 0E10 ???     		;
003B34 0E89 ???     		;
003B36 0F04                 	BTST    D7, D4 		;
003B38 0F81                 	BCLR    D7, D1 		;
003B3A 1000                 	MOVE.B  D0,D0 		;
003B3C 1081                 	MOVE.B  D1,(A0) 		;
003B3E 1104                 	MOVE.B  D4,-(A0) 		;
003B40 1189         1210    	MOVE.B  A1,(#$10,A0,D1) 		;
003B44 1299                 	MOVE.B  (A1)+,(A1) 		;
003B46 1324                 	MOVE.B  -(A4),-(A1) 		;
003B48 13B1 1440    14D1    	MOVE.B  (#$40,A1,D1),(#$D1,A1,D1) 		;
003B4E 1564         15F9    	MOVE.B  -(A4),(#$15F9,A2) 		;
003B52 1690                 	MOVE.B  (A0),(A3) 		;
003B54 1729 17C4            	MOVE.B  (#$17C4,A1),-(A3) 		;
003B58 1861                 	MOVE.B  -(A1),A4 		;
003B5A 1900                 	MOVE.B  D0,-(A4) 		;
003B5C 19A1         1A44    	MOVE.B  -(A1),(#$44,A4,D1) 		;
003B60 1AE9 1B90            	MOVE.B  (#$1B90,A1),(A5)+ 		;
003B64 1C39 1CE41D91        	MOVE.B  $1CE41D91.L,D6 		;
003B6A 1E40                 	MOVE.B  D0,A7 		;
003B6C 1EF1 1FA4            	MOVE.B  (#$A4,A1,D1),(A7)+ 		;
003B70 2059                 	MOVE.L  (A1)+,A0 		;
003B72 2110                 	MOVE.L  (A0),-(A0) 		;
003B74 21C9         2284    	MOVE.L  A1,$2284.W 		;
003B78 2341         2400    	MOVE.L  D1,(#$2400,A1) 		;
003B7C 24C1                 	MOVE.L  D1,(A2)+ 		;
003B7E 2584         2649    	MOVE.L  D4,(#$49,A2,D2) 		;
003B82 2710                 	MOVE.L  (A0),-(A3) 		;
003B84 27D9         28A4    	MOVE.L  (A1)+,(#$A4,PC,D2) 		;
003B88 2971 2A40    2B11    	MOVE.L  (#$40,A1,D2),(#$2B11,A4) 		;
003B8E 2BE4         2CB9    	MOVE.L  -(A4),#$00002CB9 		;
003B92 2D90         2E69    	MOVE.L  (A0),(#$69,A6,D2) 		;
003B96 2F44         3021    	MOVE.L  D4,(#$3021,A7) 		;
003B9A 3100                 	MOVE.W  D0,-(A0) 		;
003B9C 31E1         32C4    	MOVE.W  -(A1),$32C4.W 		;
003BA0 33A9 3490    3579    	MOVE.W  (#$3490,A1),(#$79,A1,D3) 		;
003BA6 3664                 	MOVE.W  -(A4),A3 		;
003BA8 3751         3840    	MOVE.W  (A1),(#$3840,A3) 		;
003BAC 3931 3A24            	MOVE.W  (#$24,A1,D3),-(A4) 		;
003BB0 3B19                 	MOVE.W  (A1)+,-(A5) 		;
003BB2 3C10                 	MOVE.W  (A0),D6 		;
003BB4 3D09                 	MOVE.W  A1,-(A6) 		;
003BB6 3E04                 	MOVE.W  D4,D7 		;
003BB8 3F01                 	MOVE.W  D1,-(A7) 		;
003BBA 4000                 	NEGX    D0		;
003BBC 4101                 	???     		;
003BBE 4204                 	CLR     D4		;
003BC0 4309                 	???     		;
003BC2 4410                 	NEG     (A0)		;
003BC4 4519                 	???     		;
003BC6 4624                 	NOT    	-(A4)		;
003BC8 4731         4840    	???     		;
003BCC 4951                 	???     		;
003BCE 4A64                 	TST.W   -(A4)			;
003BD0 4B79         4C904DA9	???     		;
003BD6 4EC4                 	JMP     D4			;
003BD8 4FE1                 	LEA     -(A1), A7		;
003BDA 5100                 	SUBQ.B  #$0, D0			;
003BDC 5221                 	ADDQ.B  #$1, -(A1)			;
003BDE 5344                 	SUBQ.W  #$1, D4			;
003BE0 5469         5590    	ADDQ.W  #$2, (#$5590,A1)			;
003BE4 56B9         57E45911	ADDQ.L  #$3, $57E45911.L			;
003BEA 5A40                 	ADDQ.W  #$5, D0			;
003BEC 5B71         5CA4    	SUBQ.W  #$5, (#$A4,A1,D5)			;
003BF0 5DD9                 	SLT     (A1)+			;
003BF2 5F10                 	SUBQ.B  #$7, (A0)			;
003BF4 6049                 	BRA     #$0049				;
003BF6 6184                 	BRS     #$FF84				;
003BF8 62C1                 	BLS     #$FFC1				;
003BFA 6400 6541            	BCC     #$6541				;
003BFE 6684                 	BNE     #$FF84				;
003C00 67C9                 	BEQ     #$FFC9				;
003C02 6910                 	BVS     #$0010				;
003C04 6A59                 	BPL     #$0059				;
003C06 6BA4                 	BMI     #$FFA4				;
003C08 6CF1                 	BGE     #$FFF1				;
003C0A 6E40                 	BGT     #$0040				;
003C0C 6F91                 	BLE     #$FF91				;
003C0E 70E4                 	MOVEQ   #$E4, D0			;
003C10 7239                 	MOVEQ   #$39, D1			;
003C12 7390                 	MOVEQ   #$90, D1			;
003C14 74E9                 	MOVEQ   #$E9, D2			;
003C16 7644                 	MOVEQ   #$44, D3			;
003C18 77A1                 	MOVEQ   #$A1, D3			;
003C1A 7900                 	MOVEQ   #$00, D4			;
003C1C 7A61                 	MOVEQ   #$61, D5			;
003C1E 7BC4                 	MOVEQ   #$C4, D5			;
003C20 7D29                 	MOVEQ   #$29, D6			;
003C22 7E90                 	MOVEQ   #$90, D7			;
003C24 7FF9                 	MOVEQ   #$F9, D7			;
003C26 8164                 	OR.W    -(A4), D0		;
003C28 82D1                 	DIVU    (A1), D1		;
003C2A 8440                 	OR.W    D0, D2		;
003C2C 85B1         8724    	OR.L    (#$24,A1,A0), D2		;
003C30 8899                 	OR.L    D4, (A1)+		;
003C32 8A10                 	OR.B    (A0), D5		;
003C34 8B89                 	OR.L    D5, A1		;
003C36 8D04                 	SBCD    D4, D6		;
003C38 8E81                 	OR.L    D1, D7		;
003C3A 9000                 	SUB.B   D0, D0		;
003C3C 9181                 	SUBX.L  D1, D0		;
003C3E 9304                 	SUBX.B  D4, D1		;
003C40 9489                 	SUB.L   D2, A1		;
003C42 9610                 	SUB.B   (A0), D3		;
003C44 9799                 	SUB.L   D3, (A1)+		;
003C46 9924                 	SUB.B   -(A4), D4		;
003C48 9AB1         9C40    	SUB.L   (#$40,A1,A1), D5		;
003C4C 9DD1                 	SUBA.L  (A1), A6		;
003C4E 9F64                 	SUB.W   -(A4), D7		;
003C50 A0F9                 	???    		;
003C52 A290                 	???    		;
003C54 A429                 	???    		;
003C56 A5C4                 	???    		;
003C58 A761                 	???    		;
003C5A A900                 	???    		;
003C5C AAA1                 	???    		;
003C5E AC44                 	???    		;
003C60 ADE9                 	???    		;
003C62 AF90                 	???    		;
003C64 B139         B2E4B491	EOR.B   $B2E4B491.L, D0		;
003C6A B640                 	CMP.W   D0, D3		;
003C6C B7F1         B9A4BB59	CMPA.L  (#$59,A1,A3), A3		;
003C72 BD10                 	EOR.B   (A0), D6		;
003C74 BEC9                 	CMPA.W  A1, A7		;
003C76 C084                 	AND.L   D4, D0		;
003C78 C241                 	AND.W   D1, D1		;
003C7A C400                 	AND.B   D0, D2		;
003C7C C5C1                 	MULS    D1, D2		;
003C7E C784                 	EXG    D4, D3		;
003C80 C949                 	EXG    A1, A4		;
003C82 CB10                 	AND.B   (A0), D5		;
003C84 CCD9                 	MULU    (A1)+, D6		;
003C86 CEA4                 	AND.L   -(A4), D7		;
003C88 D071         D240    	ADD.W   (#$40,A1,A5), D0		;
003C8C D411                 	ADD.B   (A1), D2		;
003C8E D5E4                 	ADDA.L  -(A4), A2		;
003C90 D7B9         D990DB69	ADD.L   D3, $D990DB69.L		;
003C96 DD44                 	ADDX.W  D4, D6		;
003C98 DF21                 	ADD.B   -(A1), D7		;
003C9A E100                 	ASL.B   #0, D0		;
003C9C E2E1                 	LSR   -(A1)		;
003C9E E4C4                 	ROXR  D4		;
003CA0 E6A9                 	LSR.L   D3, D1		;
003CA2 E890                 	ROXR.L  #4, D0		;
003CA4 EA79                 	ROR.W   D5, D1		;
003CA6 EC64                 	ASR.W   D6, D4		;
003CA8 EE51                 	ROXR.W  #7, D1		;
003CAA F040                 	???    		;
003CAC F231                 	???    		;
003CAE F424                 	???    		;
003CB0 F619                 	???    		;
003CB2 F810                 	???    		;
003CB4 FA09                 	???    		;
003CB6 FC04                 	???    		;
003CB8 FE01                 	???    		;
003CBA 0240 00FF            	ANDI.W  #$00FF, D0			;
003CBE D000                 	ADD.B   D0, D0		;
003CC0 6506                 	BCS     #$0006				;
003CC2 303B 000E            	MOVE.W  (#$0E,PC,D0),D0 		;
003CC6 4E75                 	RTS     					;
003CC8 4400                 	NEG     D0		;
003CCA 303B 0006            	MOVE.W  (#$06,PC,D0),D0 		;
003CCE 4440                 	NEG     D0		;
003CD0 4E75                 	RTS     					;
003CD2 0000 0020            	ORI.B   #$0020, D0 			;
003CD6 0040 0060            	ORI.W   #$0060, D0 			;
003CDA 0080 00A000C0        	ORI.L   #$00A000C0, D0 			;
003CE0 00E0 01000120        	ORI.?   #$01000120, -(A0) 			;
003CE6 0140                 	BCHG    D0, D0 		;
003CE8 0160                 	BCHG    D0, -(A0) 		;
003CEA 0180                 	BCLR    D0, D0 		;
003CEC 01A0                 	BCLR    D0, -(A0) 		;
003CEE 01C0                 	BSET    D0, D0 		;
003CF0 01E0                 	BSET    D0, -(A0) 		;
003CF2 0200 0220            	ANDI.B  #$0220, D0			;
003CF6 0240 0260            	ANDI.W  #$0260, D0			;
003CFA 0280 02A002C0        	ANDI.L  #$02A002C0, D0			;
003D00 02E0 03000320        	ANDI.?  #$03000320, -(A0)			;
003D06 0340                 	BCHG    D1, D0 		;
003D08 0360                 	BCHG    D1, -(A0) 		;
003D0A 0380                 	BCLR    D1, D0 		;
003D0C 03A0                 	BCLR    D1, -(A0) 		;
003D0E 03C0                 	BSET    D1, D0 		;
003D10 03E0                 	BSET    D1, -(A0) 		;
003D12 0400 0440            	SUBI.B  #$0440, D0			;
003D16 0480 04C00500        	SUBI.L  #$04C00500, D0			;
003D1C 0540                 	BCHG    D2, D0 		;
003D1E 0580                 	BCLR    D2, D0 		;
003D20 05C0                 	BSET    D2, D0 		;
003D22 0600 0640            	ADDI.B  #$0640, D0			;
003D26 0680 06C00700        	ADDI.L  #$06C00700, D0			;
003D2C 0740                 	BCHG    D3, D0 		;
003D2E 0780                 	BCLR    D3, D0 		;
003D30 07C0                 	BSET    D3, D0 		;
003D32 0800 0840            	BTST    #$00000840, D0			;
003D36 0880 08C0            	BCLR    #$000008C0, D0			;
003D3A 0900                 	BTST    D4, D0 		;
003D3C 0940                 	BCHG    D4, D0 		;
003D3E 0980                 	BCLR    D4, D0 		;
003D40 09C0                 	BSET    D4, D0 		;
003D42 0A00 0A40            		EORI.B  #$0A40, D0			;
003D46 0A80 0AC00B00        		EORI.L  #$0AC00B00, D0			;
003D4C 0B40                 	BCHG    D5, D0 		;
003D4E 0B80                 	BCLR    D5, D0 		;
003D50 0BC0                 	BSET    D5, D0 		;
003D52 0C00 0C80            	CMPI.B  #$0C80, D0			;
003D56 0D00                 	BTST    D6, D0 		;
003D58 0D80                 	BCLR    D6, D0 		;
003D5A 0E00 ???     		;
003D5C 0E80 ???     		;
003D5E 0F00                 	BTST    D7, D0 		;
003D60 0F80                 	BCLR    D7, D0 		;
003D62 1000                 	MOVE.B  D0,D0 		;
003D64 1080                 	MOVE.B  D0,(A0) 		;
003D66 1100                 	MOVE.B  D0,-(A0) 		;
003D68 1180         1200    	MOVE.B  D0,(#$00,A0,D1) 		;
003D6C 1280                 	MOVE.B  D0,(A1) 		;
003D6E 1300                 	MOVE.B  D0,-(A1) 		;
003D70 1380         1400    	MOVE.B  D0,(#$00,A1,D1) 		;
003D74 1500                 	MOVE.B  D0,-(A2) 		;
003D76 1600                 	MOVE.B  D0,D3 		;
003D78 1700                 	MOVE.B  D0,-(A3) 		;
003D7A 1800                 	MOVE.B  D0,D4 		;
003D7C 1900                 	MOVE.B  D0,-(A4) 		;
003D7E 1A00                 	MOVE.B  D0,D5 		;
003D80 1B00                 	MOVE.B  D0,-(A5) 		;
003D82 1C00                 	MOVE.B  D0,D6 		;
003D84 1D00                 	MOVE.B  D0,-(A6) 		;
003D86 1E00                 	MOVE.B  D0,D7 		;
003D88 1F00                 	MOVE.B  D0,-(A7) 		;
003D8A 2000                 	MOVE.L  D0,D0 		;
003D8C 2100                 	MOVE.L  D0,-(A0) 		;
003D8E 2200                 	MOVE.L  D0,D1 		;
003D90 2300                 	MOVE.L  D0,-(A1) 		;
003D92 2400                 	MOVE.L  D0,D2 		;
003D94 2500                 	MOVE.L  D0,-(A2) 		;
003D96 2600                 	MOVE.L  D0,D3 		;
003D98 2700                 	MOVE.L  D0,-(A3) 		;
003D9A 2800                 	MOVE.L  D0,D4 		;
003D9C 2900                 	MOVE.L  D0,-(A4) 		;
003D9E 2A00                 	MOVE.L  D0,D5 		;
003DA0 2B00                 	MOVE.L  D0,-(A5) 		;
003DA2 2C00                 	MOVE.L  D0,D6 		;
003DA4 2D00                 	MOVE.L  D0,-(A6) 		;
003DA6 2E00                 	MOVE.L  D0,D7 		;
003DA8 2F00                 	MOVE.L  D0,-(A7) 		;
003DAA 3000                 	MOVE.W  D0,D0 		;
003DAC 3100                 	MOVE.W  D0,-(A0) 		;
003DAE 3200                 	MOVE.W  D0,D1 		;
003DB0 3300                 	MOVE.W  D0,-(A1) 		;
003DB2 3400                 	MOVE.W  D0,D2 		;
003DB4 3600                 	MOVE.W  D0,D3 		;
003DB6 3800                 	MOVE.W  D0,D4 		;
003DB8 3A00                 	MOVE.W  D0,D5 		;
003DBA 3C00                 	MOVE.W  D0,D6 		;
003DBC 3E00                 	MOVE.W  D0,D7 		;
003DBE 4000                 	NEGX    D0		;
003DC0 4200                 	CLR     D0		;
003DC2 4400                 	NEG     D0		;
003DC4 4800                 	NBCD    D0		;
003DC6 4C00                 	???     		;
003DC8 5000                 	ADDQ.B  #$0, D0			;
003DCA 5400                 	ADDQ.B  #$2, D0			;
003DCC 5800                 	ADDQ.B  #$4, D0			;
003DCE 5C00                 	ADDQ.B  #$6, D0			;
003DD0 5FFF         0000    	SLE     #$00000000			;
003DD4 0000 0000            	ORI.B   #$0000, D0 			;
003DD8 0000 0000            	ORI.B   #$0000, D0 			;
003DDC 0000 0001            	ORI.B   #$0001, D0 			;
003DE0 0101                 	BTST    D0, D1 		;
003DE2 0202 0303            	ANDI.B  #$0303, D2			;
003DE6 0405 0607            	SUBI.B  #$0607, D5			;
003DEA 0809 0A0B            	BTST    #$A0B, A1			;
003DEE 0D0E 1011            	MOVEP   (#$1011,A6), D6 		;
003DF2 1315                 	MOVE.B  (A5),-(A1) 		;
003DF4 1719                 	MOVE.B  (A1)+,-(A3) 		;
003DF6 1B1D                 	MOVE.B  (A5)+,-(A5) 		;
003DF8 2022                 	MOVE.L  -(A2),D0 		;
003DFA 2527                 	MOVE.L  -(A7),-(A2) 		;
003DFC 2A2D 3033            	MOVE.L  (#$3033,A5),D5 		;
003E00 3639 3C3F4346        	MOVE.W  $3C3F4346.L,D3 		;
003E06 4A4D                 	TST.W   A5			;
003E08 5155                 	SUBQ.W  #$0, (A5)			;
003E0A 585C                 	ADDQ.W  #$4, (A4)+			;
003E0C 6064                 	BRA     #$0064				;
003E0E 686C                 	BVC     #$006C				;
003E10 7074                 	MOVEQ   #$74, D0			;
003E12 787C                 	MOVEQ   #$7C, D4			;
003E14 8083                 	OR.L    D3, D0		;
003E16 878B                 	OR.L    D3, A3		;
003E18 8F93                 	OR.L    (A3), D7		;
003E1A 979B                 	SUB.L   D3, (A3)+		;
003E1C 9FA3                 	SUB.L   -(A3), D7		;
003E1E A7AA                 	???    		;
003E20 AEB2                 	???    		;
003E22 B5B9         BCC0C3C6	EOR.L   $BCC0C3C6.L, D2		;
003E28 C9CC                 	MULS    A4, D4		;
003E2A CFD2                 	MULS    (A2), D7		;
003E2C D5D8                 	ADDA.L  (A0)+, A2		;
003E2E DADD                 	ADDA.W  (A5)+, A5		;
003E30 DFE2                 	ADDA.L  -(A2), A7		;
003E32 E4E6                 	ROXR  -(A6)		;
003E34 E8EA         ECEE    	???  	(#$ECEE,A2)		;
003E38 EFF1         F2F4    	???  	(#$F4,A1,A7)		;
003E3C F5F6                 	???    		;
003E3E F7F8                 	???    		;
003E40 F9FA                 	???    		;
003E42 FBFC                 	???    		;
003E44 FCFD                 	???    		;
003E46 FDFE                 	???    		;
003E48 FEFE                 	???    		;
003E4A FFFF                 	???    		;
003E4C FFFF                 	???    		;
003E4E FFFF                 	???    		;
003E50 FFFF                 	???    		;
003E52 FFFF                 	???    		;
003E54 45F9         00003EB2	LEA     $00003EB2.L, A2		;
003E5A 6000 0036            	BRA     #$0036				;
003E5E 45F9         00003EDA	LEA     $00003EDA.L, A2		;
003E64 6000 002C            	BRA     #$002C				;
003E68 45F9         00003EC6	LEA     $00003EC6.L, A2		;
003E6E 6000 0022            	BRA     #$0022				;
003E72 45F9         00003EEE	LEA     $00003EEE.L, A2		;
003E78 6000 0018            	BRA     #$0018				;
003E7C 45F9         00003F02	LEA     $00003F02.L, A2		;
003E82 6000 000E            	BRA     #$000E				;
003E86 023C 00FE            	ANDI.B  #$FE, CCR			;
003E8A 4E75                 	RTS     					;
003E8C 003C 0001            	ORI.B   #$01, CCR		;
003E90 4E75                 	RTS     					;
003E92 6100 0884            	BRS     #$0884				;
003E96 0240 0007            	ANDI.W  #$0007, D0			;
003E9A 3E3C 0060            	MOVE.W  #$00000060,D7 		;
003E9E CEC0                 	MULU    D0, D7		;
003EA0 DDC7                 	ADDA.L  D7, A6		;
003EA2 4287                 	CLR     D7		;
003EA4 1E2E 0002            	MOVE.B  (#$0002,A6),D7 		;
003EA8 0207 0007            	ANDI.B  #$0007, D7			;
003EAC E50F                 	LSL.B   #2, D7		;
003EAE D5C7                 	ADDA.L  D7, A2		;
003EB0 4ED2                 	JMP     (A2)			;
003EB2 6000 0180            	BRA     #$0180				;
003EB6 6000 0162            	BRA     #$0162				;
003EBA 6000 015E            	BRA     #$015E				;
003EBE 6000 015A            	BRA     #$015A				;
003EC2 6000 0156            	BRA     #$0156				;
003EC6 6000 FFBE            	BRA     #$FFBE				;
003ECA 6000 02EE            	BRA     #$02EE				;
003ECE 6000 02F2            	BRA     #$02F2				;
003ED2 6000 FFB2            	BRA     #$FFB2				;
003ED6 6000 FFAE            	BRA     #$FFAE				;
003EDA 6000 FFAA            	BRA     #$FFAA				;
003EDE 6000 0302            	BRA     #$0302				;
003EE2 6000 02FE            	BRA     #$02FE				;
003EE6 6000 02FA            	BRA     #$02FA				;
003EEA 6000 02F6            	BRA     #$02F6				;
003EEE 6000 FF96            	BRA     #$FF96				;
003EF2 6000 FF92            	BRA     #$FF92				;
003EF6 6000 FF8E            	BRA     #$FF8E				;
003EFA 6000 030C            	BRA     #$030C				;
003EFE 6000 0310            	BRA     #$0310				;
003F02 6000 0324            	BRA     #$0324				;
003F06 6000 032A            	BRA     #$032A				;
003F0A 6000 0330            	BRA     #$0330				;
003F0E 6000 0336            	BRA     #$0336				;
003F12 6000 033C            	BRA     #$033C				;
003F16 6100 0800            	BRS     #$0800				;
003F1A 082C 0007    0001    	BTST    #$07, (#$0001,A4)		;
003F20 6600 0072            	BNE     #$0072				;
003F24 08EC 0007    0001    	BSET    #$07, (#$0001,A4)		;
003F2A 6100 06D2            	BRS     #$06D2				;
003F2E 6100 073E            	BRS     L00466E				;L00466E
003F32 6100 0416            	BRS     #$0416				;
003F36 DDFC         00000060	ADDA.L  #$00000060, A6			;
003F3C 6100 040C            	BRS     #$040C				;
003F40 DDFC         00000060	ADDA.L  #$00000060, A6			;
003F46 6100 0402            	BRS     #$0402				;
003F4A DDFC         00000060	ADDA.L  #$00000060, A6			;
003F50 6100 03F8            	BRS     #$03F8				;
003F54 DDFC         00000060	ADDA.L  #$00000060, A6			;
003F5A 6100 03EE            	BRS     #$03EE				;
003F5E DDFC         00000060	ADDA.L  #$00000060, A6			;
003F64 6100 03E4            	BRS     #$03E4				;
003F68 DDFC         00000060	ADDA.L  #$00000060, A6			;
003F6E 6100 03DA            	BRS     #$03DA				;
003F72 DDFC         00000060	ADDA.L  #$00000060, A6			;
003F78 6100 03D0            	BRS     #$03D0				;
003F7C 3E3C 001F            	MOVE.W  #$0000001F,D7 			;
003F80 6100 0612            	BRS     #$0612				;
003F84 DBFC         0000000C	ADDA.L  #$0000000C, A5			;
003F8A 51CF FFF4            	DBRA    D7, #$FFF4			;
003F8E 08AC 0007    0001    	BCLR    #$07, (#$0001,A4)			;
003F94 6000 FEF0            	BRA     #$FEF0				;
003F98 6100 077E            	BRS     #$077E				;
003F9C 08EC 0007    0002    	BSET    #$07, (#$0002,A4)			;
003FA2 6000 FEE2            	BRA     #$FEE2				;
003FA6 6100 0770            	BRS     #$0770				;
003FAA 08AC 0007    0002    	BCLR    #$07, (#$0002,A4)			;
003FB0 6000 FED4            	BRA     #$FED4				;
003FB4 6000 FED0            	BRA     #$FED0				;
003FB8 6100 075E            	BRS     #$075E				;
003FBC 0240 0007            	ANDI.W  #$0007, D0			;
003FC0 3E3C 0060            	MOVE.W  #$00000060,D7 		;
003FC4 CEC0                 	MULU    D0, D7		;
003FC6 DDC7                 	ADDA.L  D7, A6		;
003FC8 4A42                 	TST.W   D2			;
003FCA 6A00 0022            	BPL     #$0022				;
003FCE 4442                 	NEG     D2		;
003FD0 0642 1000            	ADDI.W  #$1000, D2			;
003FD4 2E2E 0030            	MOVE.L  (#$0030,A6),D7 		;
003FD8 3C3C 1000            	MOVE.W  #$00001000,D6 		;
003FDC CEC6                 	MULU    D6, D7		;
003FDE 8EC2                 	DIVU    D2, D7		;
003FE0 0287 0000FFFF        	ANDI.L  #$0000FFFF, D7			;
003FE6 2D47         0014    	MOVE.L  D7,(#$0014,A6) 		;
003FEA 6000 0014            	BRA     #$0014				;
003FEE 0642 1000            	ADDI.W  #$1000, D2			;
003FF2 2E2E 0030            	MOVE.L  (#$0030,A6),D7 		;
003FF6 CEC2                 	MULU    D2, D7		;
003FF8 E08F                 	LSR.L   #0, D7		;
003FFA E88F                 	LSR.L   #4, D7		;
003FFC 2D47         0014    	MOVE.L  D7,(#$0014,A6) 		;
004000 6000 FE84            	BRA     #$FE84				;
004004 6100 072E            	BRS     #$072E				;
004008 2278 0408            	MOVE.L  $0408.W,A1 		;
00400C 303C 00FF            	MOVE.W  #$000000FF,D0 		;
004010 12D8                 	MOVE.B  (A0)+,(A1)+ 		;
004012 51C8 FFFC            	DBRA    D0, #$FFFC			;
004016 6000 FE6E            	BRA     #$FE6E				;
00401A 48E7 E080            	MOVEM.L  E080, -(A7)		;
00401E 1CBC 0000            	MOVE.B  #$00000000,(A6) 		;
004022 1E3C 0001            	MOVE.B  #$00000001,D7 		;
004026 6100 07A4            	BRS     #$07A4				;
00402A 1D7C 0000    0020    	MOVE.B  #$00000000,(#$0020,A6) 		;
004030 4CDF 0107            	MOVEM.L  (A7)+, 107		;
004034 1D7C 0001    0002    	MOVE.B  #$00000001,(#$0002,A6) 		;
00403A 0816 0004            	BTST    #$04, (A6)			;
00403E 6700 0008            	BEQ     #$0008				;
004042 1D7C 0002    0002    	MOVE.B  #$00000002,(#$0002,A6) 		;
004048 1D7C 0000    0003    	MOVE.B  #$00000000,(#$0003,A6) 		;
00404E 6100 0830            	BRS     #$0830				;
004052 0280 00000007        	ANDI.L  #$00000007, D0			;
004058 0281 0000001F        	ANDI.L  #$0000001F, D1			;
00405E 0282 00000001        	ANDI.L  #$00000001, D2			;
004064 1D40         0001    	MOVE.B  D0,(#$0001,A6) 		;
004068 1D41         0004    	MOVE.B  D1,(#$0004,A6) 		;
00406C 1D42         0005    	MOVE.B  D2,(#$0005,A6) 		;
004070 2D48         0010    	MOVE.L  A0,(#$0010,A6) 		;
004074 E388                 	LSL.L   #1, D0		;
004076 2278 0404            	MOVE.L  $0404.W,A1 		;
00407A D3C0                 	ADDA.L  D0, A1		;
00407C 45E9         0080    	LEA     (#$0080,A1), A2		;
004080 2D4A         003C    	MOVE.L  A2,(#$003C,A6) 		;
004084 45E9         00B0    	LEA     (#$00B0,A1), A2		;
004088 2D4A         0038    	MOVE.L  A2,(#$0038,A6) 		;
00408C 34BC 0000            	MOVE.W  #$00000000,(A2) 		;
004090 3010                 	MOVE.W  (A0),D0 		;
004092 0C40 0018            	CMPI.W  #$0018, D0			;
004096 6500 00EA            	BCS     #$00EA				;
00409A 0C40 03C1            	CMPI.W  #$03C1, D0			;
00409E 6400 00E2            	BCC     #$00E2				;
0040A2 3D40         0006    	MOVE.W  D0,(#$0006,A6) 		;
0040A6 1D7C 0000    0020    	MOVE.B  #$00000000,(#$0020,A6) 		;
0040AC 7002                 	MOVEQ   #$02, D0			;
0040AE 4281                 	CLR     D1		;
0040B0 122E 0001            	MOVE.B  (#$0001,A6),D1 		;
0040B4 206E 0010            	MOVE.L  (#$0010,A6),A0 		;
0040B8 48E7 000E            	MOVEM.L  0E, -(A7)		;
0040BC 6100 096C            	BRS     #$096C				;
0040C0 4CDF 7000            	MOVEM.L  (A7)+, 7000		;
0040C4 6100 092A            	BRS     #$092A				;
0040C8 0C00 0000            	CMPI.B  #$0000, D0			;
0040CC 6700 0006            	BEQ     #$0006				;
0040D0 6000 00C4            	BRA     #$00C4				;
0040D4 0C82 00030D40        	CMPI.L  #$00030D40, D2			;
0040DA 6500 00C2            	BCS     #$00C2				;
0040DE 0C82 0016E361        	CMPI.L  #$0016E361, D2			;
0040E4 6400 00B8            	BCC     #$00B8				;
0040E8 2D41         000C    	MOVE.L  D1,(#$000C,A6) 		;
0040EC 2D42         0008    	MOVE.L  D2,(#$0008,A6) 		;
0040F0 E189                 	LSL.L   #0, D1		;
0040F2 2D41         001C    	MOVE.L  D1,(#$001C,A6) 		;
0040F6 302E 0006            	MOVE.W  (#$0006,A6),D0 		;
0040FA 84C0                 	DIVU    D0, D2		;
0040FC 203C 0007D000        	MOVE.L  #$0007D000,D0 		;
004102 80C2                 	DIVU    D2, D0		;
004104 0280 0000FFFF        	ANDI.L  #$0000FFFF, D0			;
00410A 2D40         0014    	MOVE.L  D0,(#$0014,A6) 		;
00410E 2D40         0030    	MOVE.L  D0,(#$0030,A6) 		;
004112 7000                 	MOVEQ   #$00, D0			;
004114 4281                 	CLR     D1		;
004116 122E 0001            	MOVE.B  (#$0001,A6),D1 		;
00411A 206E 0010            	MOVE.L  (#$0010,A6),A0 		;
00411E 48E7 000E            	MOVEM.L  0E, -(A7)		;
004122 6100 0906            	BRS     #$0906				;
004126 4CDF 7000            	MOVEM.L  (A7)+, 7000		;
00412A 6100 08C4            	BRS     #$08C4				;
00412E 0C00 0000            	CMPI.B  #$0000, D0			;
004132 6700 000E            	BEQ     #$000E				;
004136 0C00 0001            	CMPI.B  #$0001, D0			;
00413A 6700 0050            	BEQ     #$0050				;
00413E 6000 0056            	BRA     #$0056				;
004142 0203 00F0            	ANDI.B  #$00F0, D3			;
004146 1D43         002D    	MOVE.B  D3,(#$002D,A6) 		;
00414A 1D44         002F    	MOVE.B  D4,(#$002F,A6) 		;
00414E 4844                 	SWAP    D4		;
004150 1D44         002E    	MOVE.B  D4,(#$002E,A6) 		;
004154 E189                 	LSL.L   #0, D1		;
004156 E18A                 	LSL.L   #0, D2		;
004158 2D41         0018    	MOVE.L  D1,(#$0018,A6) 		;
00415C 2D42         0028    	MOVE.L  D2,(#$0028,A6) 		;
004160 E048                 	LSR.W   #0, D0		;
004162 3600                 	MOVE.W  D0,D3 		;
004164 0200 000F            	ANDI.B  #$000F, D0			;
004168 812E         002D    	OR.B    D0, (#$002D,A6)		;
00416C E84B                 	LSR.W   #4, D3		;
00416E 0203 0001            	ANDI.B  #$0001, D3			;
004172 1D43         002C    	MOVE.B  D3,(#$002C,A6) 		;
004176 0216 0010            	ANDI.B  #$0010, (A6)			;
00417A 0016 0080            	ORI.B   #$0080, (A6) 			;
00417E 6000 FD06            	BRA     #$FD06				;
004182 1D7C 0080    0003    	MOVE.B  #$00000080,(#$0003,A6) 		;
004188 6000 0028            	BRA     #$0028				;
00418C 1D7C 0082    0003    	MOVE.B  #$00000082,(#$0003,A6) 		;
004192 6000 001E            	BRA     #$001E				;
004196 1D40         0003    	MOVE.B  D0,(#$0003,A6) 		;
00419A 6000 0016            	BRA     #$0016				;
00419E 1D7C 0083    0003    	MOVE.B  #$00000083,(#$0003,A6) 		;
0041A4 6000 000C            	BRA     #$000C				;
0041A8 1D7C 0084    0003    	MOVE.B  #$00000084,(#$0003,A6) 		;
0041AE 6000 0002            	BRA     #$0002				;
0041B2 6100 06CC            	BRS     #$06CC				;
0041B6 6000 FCD4            	BRA     #$FCD4				;
0041BA 1D7C 0003    0002    	MOVE.B  #$00000003,(#$0002,A6) 		;
0041C0 6006                 	BRA     #$0006				;
0041C2 1D7C 0004    0002    	MOVE.B  #$00000004,(#$0002,A6) 		;
0041C8 08D6 0006            	BSET    #$06, (A6)			;
0041CC 1E3C 0000            	MOVE.B  #$00000000,D7 		;
0041D0 6100 05FA            	BRS     #$05FA				;
0041D4 1D7C 0000    0003    	MOVE.B  #$00000000,(#$0003,A6) 		;
0041DA 6100 06A4            	BRS     #$06A4				;
0041DE 6000 FCA6            	BRA     #$FCA6				;
0041E2 1CBC 0000            	MOVE.B  #$00000000,(A6) 		;
0041E6 1E3C 0001            	MOVE.B  #$00000001,D7 		;
0041EA 6100 05E0            	BRS     #$05E0				;
0041EE 1D7C 0000    0020    	MOVE.B  #$00000000,(#$0020,A6) 		;
0041F4 1D7C 0000    0002    	MOVE.B  #$00000000,(#$0002,A6) 		;
0041FA 1D7C 0000    0003    	MOVE.B  #$00000000,(#$0003,A6) 		;
004200 6100 067E            	BRS     #$067E				;
004204 6000 FC80            	BRA     #$FC80				;
004208 1D7C 0001    0002    	MOVE.B  #$00000001,(#$0002,A6) 		;
00420E 6006                 	BRA     #$0006				;
004210 1D7C 0002    0002    	MOVE.B  #$00000002,(#$0002,A6) 		;
004216 0896 0006            	BCLR    #$06, (A6)			;
00421A 1D7C 0000    0003    	MOVE.B  #$00000000,(#$0003,A6) 		;
004220 6100 065E            	BRS     #$065E				;
004224 6000 FC60            	BRA     #$FC60				;
004228 4A02                 	TST.B   D2			;
00422A 6700 002E            	BEQ     #$002E				;
00422E 6000 00AC            	BRA     #$00AC				;
004232 4A02                 	TST.B   D2			;
004234 6700 0024            	BEQ     #$0024				;
004238 6000 00C4            	BRA     #$00C4				;
00423C 4A02                 	TST.B   D2			;
00423E 6700 0034            	BEQ     #$0034				;
004242 6000 007C            	BRA     #$007C				;
004246 4A02                 	TST.B   D2			;
004248 6700 0010            	BEQ     #$0010				;
00424C 6000 006E            	BRA     #$006E				;
004250 4A02                 	TST.B   D2			;
004252 6700 003A            	BEQ     #$003A				;
004256 6000 0064            	BRA     #$0064				;
00425A 0201 007F            	ANDI.B  #$007F, D1			;
00425E 1E3C 007F            	MOVE.B  #$0000007F,D7 		;
004262 9E01                 	SUB.B   D1, D7		;
004264 1207                 	MOVE.B  D7,D1 		;
004266 1D41         0022    	MOVE.B  D1,(#$0022,A6) 		;
00426A 1D7C 0000    0023    	MOVE.B  #$00000000,(#$0023,A6) 		;
004270 6000 FC14            	BRA     #$FC14				;
004274 0201 007F            	ANDI.B  #$007F, D1			;
004278 1E3C 007F            	MOVE.B  #$0000007F,D7 		;
00427C 9E01                 	SUB.B   D1, D7		;
00427E 1207                 	MOVE.B  D7,D1 		;
004280 0896 0004            	BCLR    #$04, (A6)			;
004284 1D7C 0001    0002    	MOVE.B  #$00000001,(#$0002,A6) 		;
00428A 6000 0018            	BRA     #$0018				;
00428E 0201 007F            	ANDI.B  #$007F, D1			;
004292 1E3C 007F            	MOVE.B  #$0000007F,D7 		;
004296 9E01                 	SUB.B   D1, D7		;
004298 1207                 	MOVE.B  D7,D1 		;
00429A 0896 0004            	BCLR    #$04, (A6)			;
00429E 1D7C 0003    0002    	MOVE.B  #$00000003,(#$0002,A6) 		;
0042A4 1D7C 0000    0003    	MOVE.B  #$00000000,(#$0003,A6) 		;
0042AA 6100 05D4            	BRS     #$05D4				;
0042AE 1D41         0022    	MOVE.B  D1,(#$0022,A6) 		;
0042B2 1D7C 0000    0023    	MOVE.B  #$00000000,(#$0023,A6) 		;
0042B8 6000 FBCC            	BRA     #$FBCC				;
0042BC 6000 FBC8            	BRA     #$FBC8				;
0042C0 0201 007F            	ANDI.B  #$007F, D1			;
0042C4 1E3C 007F            	MOVE.B  #$0000007F,D7 		;
0042C8 9E01                 	SUB.B   D1, D7		;
0042CA 1207                 	MOVE.B  D7,D1 		;
0042CC B22E         0022    	CMP.B   (#$0022,A6), D1		;
0042D0 6700 0074            	BEQ     #$0074				;
0042D4 102E 0022            	MOVE.B  (#$0022,A6),D0 		;
0042D8 6000 0056            	BRA     #$0056				;
0042DC 0201 007F            	ANDI.B  #$007F, D1			;
0042E0 1E3C 007F            	MOVE.B  #$0000007F,D7 		;
0042E4 9E01                 	SUB.B   D1, D7		;
0042E6 1207                 	MOVE.B  D7,D1 		;
0042E8 B22E         0022    	CMP.B   (#$0022,A6), D1		;
0042EC 6700 0058            	BEQ     #$0058				;
0042F0 102E 0022            	MOVE.B  (#$0022,A6),D0 		;
0042F4 3D7C 7F00    0024    	MOVE.W  #$00007F00,(#$0024,A6) 		;
0042FA 6000 0034            	BRA     #$0034				;
0042FE 1D7C 0002    0002    	MOVE.B  #$00000002,(#$0002,A6) 		;
004304 1D7C 0000    0003    	MOVE.B  #$00000000,(#$0003,A6) 		;
00430A 6100 0574            	BRS     #$0574				;
00430E 0201 007F            	ANDI.B  #$007F, D1			;
004312 1E3C 007F            	MOVE.B  #$0000007F,D7 		;
004316 9E01                 	SUB.B   D1, D7		;
004318 1207                 	MOVE.B  D7,D1 		;
00431A B22E         0022    	CMP.B   (#$0022,A6), D1		;
00431E 6700 0026            	BEQ     #$0026				;
004322 102E 0022            	MOVE.B  (#$0022,A6),D0 		;
004326 1D40         0024    	MOVE.B  D0,(#$0024,A6) 		;
00432A 1D7C 0000    0025    	MOVE.B  #$00000000,(#$0025,A6) 		;
004330 1D41         0022    	MOVE.B  D1,(#$0022,A6) 		;
004334 1D7C 0000    0023    	MOVE.B  #$00000000,(#$0023,A6) 		;
00433A 6100 068C            	BRS     #$068C				;
00433E 3D42         0026    	MOVE.W  D2,(#$0026,A6) 		;
004342 08D6 0004            	BSET    #$04, (A6)			;
004346 6000 FB3E            	BRA     #$FB3E				;
00434A 0816 0007            	BTST    #$07, (A6)			;
00434E 6700 0226            	BEQ     #$0226				;
004352 0816 0006            	BTST    #$06, (A6)			;
004356 6600 021E            	BNE     #$021E				;
00435A 202E 0014            	MOVE.L  (#$0014,A6),D0 		;
00435E 91AE         001C    	SUB.L   D0, (#$001C,A6)		;
004362 6400 0074            	BCC     #$0074				;
004366 7003                 	MOVEQ   #$03, D0			;
004368 4281                 	CLR     D1		;
00436A 122E 0001            	MOVE.B  (#$0001,A6),D1 		;
00436E 48E7 000E            	MOVEM.L  0E, -(A7)		;
004372 6100 06B6            	BRS     #$06B6				;
004376 4CDF 7000            	MOVEM.L  (A7)+, 7000		;
00437A 6100 0674            	BRS     #$0674				;
00437E 0C00 0000            	CMPI.B  #$0000, D0			;
004382 6700 0016            	BEQ     #$0016				;
004386 0C00 0002            	CMPI.B  #$0002, D0			;
00438A 6700 000E            	BEQ     #$000E				;
00438E 0C00 0001            	CMPI.B  #$0001, D0			;
004392 6700 0044            	BEQ     #$0044				;
004396 6000 01E0            	BRA     #$01E0				;
00439A 0C82 00030D40        	CMPI.L  #$00030D40, D2			;
0043A0 6500 01DE            	BCS     #$01DE				;
0043A4 0C82 0016E361        	CMPI.L  #$0016E361, D2			;
0043AA 6400 01D4            	BCC     #$01D4				;
0043AE 2D41         000C    	MOVE.L  D1,(#$000C,A6) 		;
0043B2 2D42         0008    	MOVE.L  D2,(#$0008,A6) 		;
0043B6 E189                 	LSL.L   #0, D1		;
0043B8 D3AE         001C    	ADD.L   D1, (#$001C,A6)		;
0043BC 302E 0006            	MOVE.W  (#$0006,A6),D0 		;
0043C0 84C0                 	DIVU    D0, D2		;
0043C2 203C 0007D000        	MOVE.L  #$0007D000,D0 		;
0043C8 80C2                 	DIVU    D2, D0		;
0043CA 0280 0000FFFF        	ANDI.L  #$0000FFFF, D0			;
0043D0 2D40         0014    	MOVE.L  D0,(#$0014,A6) 		;
0043D4 2D40         0030    	MOVE.L  D0,(#$0030,A6) 		;
0043D8 0816 0004            	BTST    #$04, (A6)			;
0043DC 6700 0088            	BEQ     #$0088				;
0043E0 532E         0035    	SUBQ.B  #$1, (#$0035,A6)			;
0043E4 6400 0080            	BCC     #$0080				;
0043E8 1D7C 0031    0035    	MOVE.B  #$00000031,(#$0035,A6) 		;
0043EE 302E 0022            	MOVE.W  (#$0022,A6),D0 		;
0043F2 322E 0024            	MOVE.W  (#$0024,A6),D1 		;
0043F6 342E 0026            	MOVE.W  (#$0026,A6),D2 		;
0043FA B240                 	CMP.W   D0, D1		;
0043FC 6500 001A            	BCS     #$001A				;
004400 956E         0024    	SUB.W   D2, (#$0024,A6)		;
004404 6500 0032            	BCS     #$0032				;
004408 B06E         0024    	CMP.W   (#$0024,A6), D0		;
00440C 6700 002A            	BEQ     #$002A				;
004410 6400 0026            	BCC     #$0026				;
004414 6000 0050            	BRA     #$0050				;
004418 D56E         0024    	ADD.W   D2, (#$0024,A6)		;
00441C 6500 0012            	BCS     #$0012				;
004420 B06E         0024    	CMP.W   (#$0024,A6), D0		;
004424 6700 000A            	BEQ     #$000A				;
004428 6500 0006            	BCS     #$0006				;
00442C 6000 0038            	BRA     #$0038				;
004430 0C40 7F00            	CMPI.W  #$7F00, D0			;
004434 6700 001A            	BEQ     #$001A				;
004438 0896 0004            	BCLR    #$04, (A6)			;
00443C 1D7C 0001    0002    	MOVE.B  #$00000001,(#$0002,A6) 		;
004442 1D7C 0000    0003    	MOVE.B  #$00000000,(#$0003,A6) 		;
004448 6100 0436            	BRS     #$0436				;
00444C 6000 0018            	BRA     #$0018				;
004450 1CBC 0000            	MOVE.B  #$00000000,(A6) 		;
004454 1E3C 0001            	MOVE.B  #$00000001,D7 		;
004458 6100 0372            	BRS     #$0372				;
00445C 1D7C 0000    0020    	MOVE.B  #$00000000,(#$0020,A6) 		;
004462 6000 00FE            	BRA     #$00FE				;
004466 532E         0034    	SUBQ.B  #$1, (#$0034,A6)			;
00446A 6400 000E            	BCC     #$000E				;
00446E 1D7C 0031    0034    	MOVE.B  #$00000031,(#$0034,A6) 		;
004474 206E 0038            	MOVE.L  (#$0038,A6),A0 		;
004478 5250                 	ADDQ.W  #$1, (A0)			;
00447A 0816 0000            	BTST    #$00, (A6)			;
00447E 6600 00F6            	BNE     #$00F6				;
004482 202E 0014            	MOVE.L  (#$0014,A6),D0 		;
004486 91AE         0018    	SUB.L   D0, (#$0018,A6)		;
00448A 6400 00EA            	BCC     #$00EA				;
00448E 102E 002D            	MOVE.B  (#$002D,A6),D0 		;
004492 122E 002E            	MOVE.B  (#$002E,A6),D1 		;
004496 142E 002F            	MOVE.B  (#$002F,A6),D2 		;
00449A 162E 002C            	MOVE.B  (#$002C,A6),D3 		;
00449E 6100 0456            	BRS     #$0456				;
0044A2 0C00 0090            	CMPI.B  #$0090, D0			;
0044A6 6600 0012            	BNE     #$0012				;
0044AA 102E 002D            	MOVE.B  (#$002D,A6),D0 		;
0044AE 282E 0028            	MOVE.L  (#$0028,A6),D4 		;
0044B2 6100 03F6            	BRS     #$03F6				;
0044B6 522E         0020    	ADDQ.B  #$1, (#$0020,A6)			;
0044BA 7001                 	MOVEQ   #$01, D0			;
0044BC 4281                 	CLR     D1		;
0044BE 122E 0001            	MOVE.B  (#$0001,A6),D1 		;
0044C2 48E7 000E            	MOVEM.L  0E, -(A7)		;
0044C6 6100 0562            	BRS     #$0562				;
0044CA 4CDF 7000            	MOVEM.L  (A7)+, 7000		;
0044CE 6100 0520            	BRS     #$0520				;
0044D2 0C00 0000            	CMPI.B  #$0000, D0			;
0044D6 6700 001E            	BEQ     #$001E				;
0044DA 0C00 0001            	CMPI.B  #$0001, D0			;
0044DE 6700 0006            	BEQ     #$0006				;
0044E2 6000 0094            	BRA     #$0094				;
0044E6 08D6 0000            	BSET    #$00, (A6)			;
0044EA 4A2E         0020    	TST.B   (#$0020,A6)			;
0044EE 6700 0072            	BEQ     #$0072				;
0044F2 6000 0082            	BRA     #$0082				;
0044F6 0203 00F0            	ANDI.B  #$00F0, D3			;
0044FA 1D43         002D    	MOVE.B  D3,(#$002D,A6) 		;
0044FE 1D44         002F    	MOVE.B  D4,(#$002F,A6) 		;
004502 4844                 	SWAP    D4		;
004504 1D44         002E    	MOVE.B  D4,(#$002E,A6) 		;
004508 E048                 	LSR.W   #0, D0		;
00450A 3600                 	MOVE.W  D0,D3 		;
00450C 0200 000F            	ANDI.B  #$000F, D0			;
004510 812E         002D    	OR.B    D0, (#$002D,A6)		;
004514 E84B                 	LSR.W   #4, D3		;
004516 0203 0001            	ANDI.B  #$0001, D3			;
00451A 1D43         002C    	MOVE.B  D3,(#$002C,A6) 		;
00451E E18A                 	LSL.L   #0, D2		;
004520 2D42         0028    	MOVE.L  D2,(#$0028,A6) 		;
004524 E189                 	LSL.L   #0, D1		;
004526 D3AE         0018    	ADD.L   D1, (#$0018,A6)		;
00452A 6700 0006            	BEQ     #$0006				;
00452E 6A00 0046            	BPL     #$0046				;
004532 102E 002D            	MOVE.B  (#$002D,A6),D0 		;
004536 122E 002E            	MOVE.B  (#$002E,A6),D1 		;
00453A 142E 002F            	MOVE.B  (#$002F,A6),D2 		;
00453E 162E 002C            	MOVE.B  (#$002C,A6),D3 		;
004542 6100 03B2            	BRS     #$03B2				;
004546 0C00 0090            	CMPI.B  #$0090, D0			;
00454A 6600 0012            	BNE     #$0012				;
00454E 102E 002D            	MOVE.B  (#$002D,A6),D0 		;
004552 282E 0028            	MOVE.L  (#$0028,A6),D4 		;
004556 6100 0352            	BRS     #$0352				;
00455A 522E         0020    	ADDQ.B  #$1, (#$0020,A6)			;
00455E 6000 FF5A            	BRA     #$FF5A				;
004562 1D7C 0000    0003    	MOVE.B  #$00000000,(#$0003,A6) 		;
004568 1D7C 0000    0002    	MOVE.B  #$00000000,(#$0002,A6) 		;
00456E 1CBC 0000            	MOVE.B  #$00000000,(A6) 		;
004572 6100 030C            	BRS     #$030C				;
004576 4E75                 	RTS     					;
004578 1D40         0003    	MOVE.B  D0,(#$0003,A6) 		;
00457C 6000 000C            	BRA     #$000C				;
004580 1D7C 0083    0003    	MOVE.B  #$00000083,(#$0003,A6) 		;
004586 6000 0002            	BRA     #$0002				;
00458A 1E3C 0001            	MOVE.B  #$00000001,D7 		;
00458E 6100 023C            	BRS     #$023C				;
004592 60D4                 	BRA     #$FFD4				;
004594 0815 0007            	BTST    #$07, (A5)			;
004598 6700 0062            	BEQ     #$0062				;
00459C 2C6D 0008            	MOVE.L  (#$0008,A5),A6 		;
0045A0 0816 0006            	BTST    #$06, (A6)			;
0045A4 6600 0056            	BNE     #$0056				;
0045A8 202E 0014            	MOVE.L  (#$0014,A6),D0 		;
0045AC 91AD         0004    	SUB.L   D0, (#$0004,A5)		;
0045B0 6400 004A            	BCC     #$004A				;
0045B4 102D 0001            	MOVE.B  (#$0001,A5),D0 		;
0045B8 122D 0002            	MOVE.B  (#$0002,A5),D1 		;
0045BC 142D 0003            	MOVE.B  (#$0003,A5),D2 		;
0045C0 162D 0000            	MOVE.B  (#$0000,A5),D3 		;
0045C4 0203 0001            	ANDI.B  #$0001, D3			;
0045C8 0200 000F            	ANDI.B  #$000F, D0			;
0045CC 0000 0080            	ORI.B   #$0080, D0 			;
0045D0 6100 0324            	BRS     #$0324				;
0045D4 0895 0007            	BCLR    #$07, (A5)			;
0045D8 532E         0020    	SUBQ.B  #$1, (#$0020,A6)			;
0045DC 6600 001E            	BNE     #$001E				;
0045E0 0816 0000            	BTST    #$00, (A6)			;
0045E4 6700 0016            	BEQ     #$0016				;
0045E8 1CBC 0000            	MOVE.B  #$00000000,(A6) 		;
0045EC 1D7C 0000    0002    	MOVE.B  #$00000000,(#$0002,A6) 		;
0045F2 1D7C 0000    0003    	MOVE.B  #$00000000,(#$0003,A6) 		;
0045F8 6100 0286            	BRS     #$0286				;
0045FC 4E75                 	RTS     					;
0045FE 082C 0007    0002    	BTST    #$07, (#$0002,A4)			;
004604 6700 0066            	BEQ     #$0066				;
004608 532C         0003    	SUBQ.B  #$1, (#$0003,A4)			;
00460C 6400 005E            	BCC     #$005E				;
004610 197C 0007    0003    	MOVE.B  #$00000007,(#$0003,A4) 		;
004616 2478 0404            	MOVE.L  $0404.W,A2 		;
00461A 207C 00100EE0        	MOVE.L  #$00100EE0,A0 		;
004620 43EA         0090    	LEA     (#$0090,A2), A1		;
004624 6100 034A            	BRS     #$034A				;
004628 207C 00100EE2        	MOVE.L  #$00100EE2,A0 		;
00462E 43EA         0092    	LEA     (#$0092,A2), A1		;
004632 6100 033C            	BRS     #$033C				;
004636 207C 00100ED2        	MOVE.L  #$00100ED2,A0 		;
00463C 43EA         0094    	LEA     (#$0094,A2), A1		;
004640 6100 032E            	BRS     #$032E				;
004644 3540         0096    	MOVE.W  D0,(#$0096,A2) 		;
004648 207C 00100ED4        	MOVE.L  #$00100ED4,A0 		;
00464E 43EA         0098    	LEA     (#$0098,A2), A1		;
004652 6100 031C            	BRS     #$031C				;
004656 3540         009A    	MOVE.W  D0,(#$009A,A2) 		;
00465A 207C 00100ED6        	MOVE.L  #$00100ED6,A0 		;
004660 43EA         009C    	LEA     (#$009C,A2), A1		;
004664 6100 030A            	BRS     #$030A				;
004668 3540         009E    	MOVE.W  D0,(#$009E,A2) 		;
00466C 4E75                 	RTS     					;

L00466E:
00466E 532C         0004    	SUBQ.B  #$1, (#$0004,A4)		;
004672 6400 006E            	BCC     #$006E				;
004676 197C 0007    0004    	MOVE.B  #$00000007,(#$0004,A4) 	;
00467C 6100 0066            	BRS     #$0066				;
004680 2078 0450            	MOVE.L  $0450.W,A0 			;
004684 D1FC         00001890	ADDA.L  #$00001890, A0			;
00468A 2278 0404            	MOVE.L  $0404.W,A1 			;
00468E D3FC         000000A0	ADDA.L  #$000000A0, A1			;
004694 7000                 	MOVEQ   #$00, D0				;
004696 7200                 	MOVEQ   #$00, D1				;
004698 7E07                 	MOVEQ   #$07, D7				;
L00469A:										;{
00469A 6100 02F0            	BRS     #$02F0				;  L00498C(0x001890+
00469E D1FC         00000002	ADDA.L  #$00000002, A0			;
0046A4 D3FC         00000002	ADDA.L  #$00000002, A1			;
0046AA 5200                 	ADDQ.B  #$1, D0				;
0046AC 51CF FFEC            	DBRA    D7, L00469A			;}
0046B0 2078 0412            	MOVE.L  $0412.W,A0 			;
0046B4 0828 0007    0000    	BTST    #$07, (#$0000,A0)		;
0046BA 6700 0026            	BEQ     #$0026				;
0046BE 4A01                 	TST.B   D1					;
0046C0 6700 0020            	BEQ     #$0020				;
0046C4 1141         0002    	MOVE.B  D1,(#$0002,A0) 			;
0046C8 117C 0001    0001    	MOVE.B  #$00000001,(#$0001,A0) 	;
0046CE 43F9         00100000	LEA     $00100000.L, A1			;
0046D4 337C 0020    042A    	MOVE.W  #$00000020,(#$042A,A1) 	;
0046DA 4E71                 	NOP     					;
0046DC 337C 0020    042C    	MOVE.W  #$00000020,(#$042C,A1) 	;
0046E2 4E75                 	RTS     					;

0046E4 4E75                 	RTS     					;
0046E6 48E7 81C0            	MOVEM.L  81C0, -(A7)		;
0046EA 207C 000007A0        	MOVE.L  #$000007A0,A0 		;
0046F0 227C 000F0000        	MOVE.L  #$000F0000,A1 		;
0046F6 3E3C 0007            	MOVE.W  #$00000007,D7 		;
0046FA 302C 0010            	MOVE.W  (#$0010,A4),D0 		;
0046FE 1390         0000    	MOVE.B  (A0),(#$00,A1,D0) 		;
004702 D1FC         00000002	ADDA.L  #$00000002, A0		;
004708 5240                 	ADDQ.W  #$1, D0			;
00470A 51CF FFF2            	DBRA    D7, #$FFF2			;
00470E 3940         0010    	MOVE.W  D0,(#$0010,A4) 		;
004712 4CDF 0381            	MOVEM.L  (A7)+, 381		;
004716 4E75                 	RTS     					;
004718 2878 0450            	MOVE.L  $0450.W,A4 		;
00471C D9FC         00003800	ADDA.L  #$00003800, A4		;
004722 2A4C                 	MOVE.L  A4,A5 		;
004724 2C4C                 	MOVE.L  A4,A6 		;
004726 DBFC         00000400	ADDA.L  #$00000400, A5		;
00472C DDFC         00000100	ADDA.L  #$00000100, A6		;
004732 4E75                 	RTS     					;
004734 2F00                 	MOVE.L  D0,-(A7) 		;
004736 2078 0448            	MOVE.L  $0448.W,A0 		;
00473A 4A00                 	TST.B   D0			;
00473C 6700 001C            	BEQ     #$001C				;
004740 0810 0007            	BTST    #$07, (A0)			;
004744 6600 000A            	BNE     #$000A				;
004748 D1FC         00000008	ADDA.L  #$00000008, A0		;
00474E 60F0                 	BRA     #$FFF0				;
004750 D1FC         00000001	ADDA.L  #$00000001, A0		;
004756 5300                 	SUBQ.B  #$1, D0			;
004758 66E6                 	BNE     #$FFE6				;
00475A 201F                 	MOVE.L  (A7)+,D0 		;
00475C 4E75                 	RTS     					;
00475E 2078 0408            	MOVE.L  $0408.W,A0 		;
004762 4281                 	CLR     D1		;
004764 0810 0007            	BTST    #$07, (A0)			;
004768 6600 0020            	BNE     #$0020				;
00476C B010                 	CMP.B   (A0), D0		;
00476E 6700 0006            	BEQ     #$0006				;
004772 5088                 	ADDQ.L  #$0, A0			;
004774 60EE                 	BRA     #$FFEE				;
004776 2228 0000            	MOVE.L  (#$0000,A0),D1 		;
00477A 2428 0004            	MOVE.L  (#$0004,A0),D2 		;
00477E 0281 000FFFFF        	ANDI.L  #$000FFFFF, D1			;
004784 0282 000FFFFF        	ANDI.L  #$000FFFFF, D2			;
00478A 4E75                 	RTS     					;
00478C 48E7 0108            	MOVEM.L  108, -(A7)		;
004790 D9FC         00000100	ADDA.L  #$00000100, A4		;
004796 3E3C 0007            	MOVE.W  #$00000007,D7 		;
00479A 103C 00FF            	MOVE.B  #$000000FF,D0 		;
00479E 1214                 	MOVE.B  (A4),D1 		;
0047A0 0201 00E0            	ANDI.B  #$00E0, D1			;
0047A4 0C01 0080            	CMPI.B  #$0080, D1			;
0047A8 6600 000E            	BNE     #$000E				;
0047AC B02C         0004    	CMP.B   (#$0004,A4), D0		;
0047B0 6500 0006            	BCS     #$0006				;
0047B4 102C 0004            	MOVE.B  (#$0004,A4),D0 		;
0047B8 D9FC         00000060	ADDA.L  #$00000060, A4		;
0047BE 51CF FFDE            	DBRA    D7, #$FFDE			;
0047C2 122E 0004            	MOVE.B  (#$0004,A6),D1 		;
0047C6 4CDF 1080            	MOVEM.L  (A7)+, 1080		;
0047CA 4E75                 	RTS     					;
0047CC 48E7 0204            	MOVEM.L  204, -(A7)		;
0047D0 3C3C 001F            	MOVE.W  #$0000001F,D6 		;
0047D4 0815 0007            	BTST    #$07, (A5)			;
0047D8 6700 0034            	BEQ     #$0034				;
0047DC BDED         00086600	CMPA.L  (#$86600,A5), A6		;
0047E2 002C 4A07    6700    	ORI.B   #$6700, (#$0034,A4) 			;
0047E8 0006 0895            	ORI.B   #$0895, D6 			;
0047EC 0007 102D            	ORI.B   #$102D, D7 			;
0047F0 0001 122D            	ORI.B   #$122D, D1 			;
0047F4 0002 142D            	ORI.B   #$142D, D2 			;
0047F8 0003 162D            	ORI.B   #$162D, D3 			;
0047FC 0000 0203            	ORI.B   #$0203, D0 			;
004800 0001 0200            	ORI.B   #$0200, D1 			;
004804 000F 0000            	ORI.B   #$0000, A7 			;
004808 0080 610000EA        	ORI.L   #$610000EA, D0 			;
00480E DBFC         0000000C	ADDA.L  #$0000000C, A5		;
004814 51CE FFBE            	DBRA    D6, #$FFBE			;
004818 4CDF 2040            	MOVEM.L  (A7)+, 2040		;
00481C 4E75                 	RTS     					;
00481E 48E7 0204            	MOVEM.L  204, -(A7)		;
004822 3C3C 001F            	MOVE.W  #$0000001F,D6 		;
004826 0815 0007            	BTST    #$07, (A5)			;
00482A 6700 002A            	BEQ     #$002A				;
00482E BDED         00086600	CMPA.L  (#$86600,A5), A6		;
004834 0022 102D            	ORI.B   #$102D, -(A2) 			;
004838 0001 122D            	ORI.B   #$122D, D1 			;
00483C 0002 142D            	ORI.B   #$142D, D2 			;
004840 0003 162D            	ORI.B   #$162D, D3 			;
004844 0000 0203            	ORI.B   #$0203, D0 			;
004848 0001 0200            	ORI.B   #$0200, D1 			;
00484C 000F 0000            	ORI.B   #$0000, A7 			;
004850 0090 610000A2        	ORI.L   #$610000A2, (A0) 			;
004856 DBFC         0000000C	ADDA.L  #$0000000C, A5		;
00485C 51CE FFC8            	DBRA    D6, #$FFC8			;
004860 4CDF 2040            	MOVEM.L  (A7)+, 2040		;
004864 4E75                 	RTS     					;
004866 48E7 6000            	MOVEM.L  6000, -(A7)		;
00486A 2401                 	MOVE.L  D1,D2 		;
00486C C2C0                 	MULU    D0, D1		;
00486E 4840                 	SWAP    D0		;
004870 C4C0                 	MULU    D0, D2		;
004872 4842                 	SWAP    D2		;
004874 4242                 	CLR     D2		;
004876 D282                 	ADD.L   D2, D1		;
004878 2001                 	MOVE.L  D1,D0 		;
00487A 4CDF 0006            	MOVEM.L  (A7)+, 06		;
00487E 4E75                 	RTS     					;
004880 48E7 E080            	MOVEM.L  E080, -(A7)		;
004884 2078 0404            	MOVE.L  $0404.W,A0 		;
004888 41E8         0080    	LEA     (#$0080,A0), A0		;
00488C 102E 0002            	MOVE.B  (#$0002,A6),D0 		;
004890 122E 0003            	MOVE.B  (#$0003,A6),D1 		;
004894 4282                 	CLR     D2		;
004896 142E 0001            	MOVE.B  (#$0001,A6),D2 		;
00489A E34A                 	LSL.W   #1, D2		;
00489C 1180         2000    	MOVE.B  D0,(#$00,A0,D2) 		;
0048A0 1181         2001    	MOVE.B  D1,(#$01,A0,D2) 		;
0048A4 4CDF 0107            	MOVEM.L  (A7)+, 107		;
0048A8 4E75                 	RTS     					;
0048AA 48E7 0104            	MOVEM.L  104, -(A7)		;
0048AE 7E20                 	MOVEQ   #$20, D7			;
0048B0 46FC         2700    	MOVE    #$00002700, SR		;
0048B4 0815 0007            	BTST    #$07, (A5)			;
0048B8 6700 001A            	BEQ     #$001A				;
0048BC DBFC         0000000C	ADDA.L  #$0000000C, A5		;
0048C2 5307                 	SUBQ.B  #$1, D7			;
0048C4 66EE                 	BNE     #$FFEE				;
0048C6 003C 0001            	ORI.B   #$01, CCR		;
0048CA 46FC         2000    	MOVE    #$00002000, SR		;
0048CE 4CDF 2080            	MOVEM.L  (A7)+, 2080		;
0048D2 4E75                 	RTS     					;
0048D4 1B40         0001    	MOVE.B  D0,(#$0001,A5) 		;
0048D8 1B41         0002    	MOVE.B  D1,(#$0002,A5) 		;
0048DC 1B42         0003    	MOVE.B  D2,(#$0003,A5) 		;
0048E0 1B43         0000    	MOVE.B  D3,(#$0000,A5) 		;
0048E4 2B44         0004    	MOVE.L  D4,(#$0004,A5) 		;
0048E8 2B4E         0008    	MOVE.L  A6,(#$0008,A5) 		;
0048EC 08D5 0007            	BSET    #$07, (A5)			;
0048F0 023C 00FE            	ANDI.B  #$FE, CCR			;
0048F4 60D4                 	BRA     #$FFD4				;
0048F6 48E7 0700            	MOVEM.L  700, -(A7)		;
0048FA 2078 0450            	MOVE.L  $0450.W,A0 		;
0048FE 43E8         1840    	LEA     (#$1840,A0), A1		;
004902 45E8         1900    	LEA     (#$1900,A0), A2		;
004906 1A00                 	MOVE.B  D0,D5 		;
004908 1C00                 	MOVE.B  D0,D6 		;
00490A 0200 00F0            	ANDI.B  #$00F0, D0			;
00490E 0C00 0090            	CMPI.B  #$0090, D0			;
004912 6600 001A            	BNE     #$001A				;
004916 1E2E 0022            	MOVE.B  (#$0022,A6),D7 		;
00491A 0816 0004            	BTST    #$04, (A6)			;
00491E 6700 0006            	BEQ     #$0006				;
004922 1E2E 0024            	MOVE.B  (#$0024,A6),D7 		;
004926 9407                 	SUB.B   D7, D2		;
004928 6400 0004            	BCC     #$0004				;
00492C 4202                 	CLR     D2		;
00492E E80D                 	LSR.B   #4, D5		;
004930 0205 0007            	ANDI.B  #$0007, D5			;
004934 0206 000F            	ANDI.B  #$000F, D6			;
004938 E90B                 	LSL.B   #4, D3		;
00493A 8C03                 	OR.B    D3, D6		;
00493C 1E2E 0001            	MOVE.B  (#$0001,A6),D7 		;
004940 EB0F                 	LSL.B   #5, D7		;
004942 8C07                 	OR.B    D7, D6		;
004944 4287                 	CLR     D7		;
004946 46FC         2700    	MOVE    #$00002700, SR		;
00494A 1E11                 	MOVE.B  (A1),D7 		;
00494C 1585         7000    	MOVE.B  D5,(#$00,A2,D7) 		;
004950 5207                 	ADDQ.B  #$1, D7			;
004952 1586         7000    	MOVE.B  D6,(#$00,A2,D7) 		;
004956 5207                 	ADDQ.B  #$1, D7			;
004958 1581         7000    	MOVE.B  D1,(#$00,A2,D7) 		;
00495C 5207                 	ADDQ.B  #$1, D7			;
00495E 1582         7000    	MOVE.B  D2,(#$00,A2,D7) 		;
004962 5207                 	ADDQ.B  #$1, D7			;
004964 1287                 	MOVE.B  D7,(A1) 		;
004966 46FC         2000    	MOVE    #$00002000, SR		;
00496A 4CDF 00E0            	MOVEM.L  (A7)+, E0		;
00496E 4E75                 	RTS     					;
004970 48E7 4000            	MOVEM.L  4000, -(A7)		;
004974 3010                 	MOVE.W  (A0),D0 		;
004976 4A40                 	TST.W   D0			;
004978 6A00 0004            	BPL     #$0004				;
00497C 4440                 	NEG     D0		;
00497E 3211                 	MOVE.W  (A1),D1 		;
004980 D041                 	ADD.W   D1, D0		;
004982 E248                 	LSR.W   #1, D0		;
004984 3280                 	MOVE.W  D0,(A1) 		;
004986 4CDF 0002            	MOVEM.L  (A7)+, 02		;
00498A 4E75                 	RTS     				;

L00498C:
00498C 0810 0007            	BTST    #$07, (A0)		;
004990 6600 0008            	BNE     L00499A			;
004994 12BC 0000            	MOVE.B  #$00000000,(A1) 	;
004998 4E75                 	RTS     				;
L00499A:
00499A 247C 00100408        	MOVE.L  #$00100408,A2 		;
0049A0 1410                 	MOVE.B  (A0),D2 			;
0049A2 0202 001F            	ANDI.B  #$001F, D2		;
0049A6 E14A                 	LSL.W   #8, D2			;
0049A8 E74A                 	LSL.W   #3, D2			;
0049AA 3482                 	MOVE.W  D2,(A2) 			;SCSP.CR4.MSLC = *ptr & 0x1F;
0049AC 343C 000E            	MOVE.W  #$0000000E,D2 		;
0049B0 4E71                 	NOP     				;
0049B2 51CA FFFC            	DBRA    D2, #$FFFC		;pause(14);
0049B6 3412                 	MOVE.W  (A2),D2 			;
0049B8 EE4A                 	LSR.W   #7, D2			;
0049BA 0202 000F            	ANDI.B  #$000F, D2		;SCSP.CR4.CA 
0049BE B411                 	CMP.B   (A1), D2			;
0049C0 67D6                 	BEQ     #$FFD6			;if (ca_prev == SCSP.CR4.CA) return;
0049C2 1282                 	MOVE.B  D2,(A1) 			;ca_prev = SCSP.CR4.CA;
0049C4 01C1                 	BSET    D0, D1 			;
0049C6 60D0                 	BRA     #$FFD0			;

0049C8 48E7 C000            	MOVEM.L  C000, -(A7)		;
0049CC B200                 	CMP.B   D0, D1			;
0049CE 6400 0008            	BCC     #$0008			;
0049D2 9001                 	SUB.B   D1, D0			;
0049D4 1200                 	MOVE.B  D0,D1 			;
0049D6 6002                 	BRA     #$0002			;
0049D8 9200                 	SUB.B   D0, D1			;
0049DA E149                 	LSL.W   #0, D1			;
0049DC 0281 00007FFF        	ANDI.L  #$00007FFF, D1		;
0049E2 0242 00FF            	ANDI.W  #$00FF, D2		;
0049E6 82C2                 	DIVU    D2, D1			;
0049E8 3401                 	MOVE.W  D1,D2 			;
0049EA 4CDF 0003            	MOVEM.L  (A7)+, 03		;
0049EE 4E75                 	RTS     				;
0049F0 0814 0000            	BTST    #$00, (A4)			;
0049F4 6700 0032            	BEQ     #$0032				;
0049F8 48E7 0080            	MOVEM.L  80, -(A7)		;
0049FC 206C 0010            	MOVE.L  (#$0010,A4),A0 		;
004A00 3140         0000    	MOVE.W  D0,(#$0000,A0) 		;
004A04 2141         0004    	MOVE.L  D1,(#$0004,A0) 		;
004A08 2142         0008    	MOVE.L  D2,(#$0008,A0) 		;
004A0C 1143         000C    	MOVE.B  D3,(#$000C,A0) 		;
004A10 1144         000E    	MOVE.B  D4,(#$000E,A0) 		;
004A14 4844                 	SWAP    D4		;
004A16 1144         000D    	MOVE.B  D4,(#$000D,A0) 		;
004A1A 4844                 	SWAP    D4		;
004A1C 06AC 000000100010    	ADDI.L  #$00000010, (#$000D,A4)			;
004A24 4CDF 0100            	MOVEM.L  (A7)+, 100		;
004A28 4E75                 	RTS     					;
004A2A 43F9         00004DF4	LEA     $00004DF4.L, A1		;
004A30 D040                 	ADD.W   D0, D0		;
004A32 D040                 	ADD.W   D0, D0		;
004A34 2271 0000            	MOVE.L  (#$00,A1,D0),A1 		;
004A38 4ED1                 	JMP     (A1)			;
004A3A 43F9         00004CE6	LEA     $00004CE6.L, A1		;
004A40 2001                 	MOVE.L  D1,D0 		;
004A42 EB48                 	LSL.W   #5, D0		;
004A44 D3C0                 	ADDA.L  D0, A1		;
004A46 D0E8         0004    	ADDA.W  (#$0004,A0), A0		;
004A4A 2348         0000    	MOVE.L  A0,(#$0000,A1) 		;
004A4E 2348         000C    	MOVE.L  A0,(#$000C,A1) 		;
004A52 42A9         0004    	CLR     (#$0004,A1)		;
004A56 6000 00E4            	BRA     #$00E4				;
004A5A 43F9         00004CE6	LEA     $00004CE6.L, A1		;
004A60 2001                 	MOVE.L  D1,D0 		;
004A62 EB48                 	LSL.W   #5, D0		;
004A64 D3C0                 	ADDA.L  D0, A1		;
004A66 2051                 	MOVE.L  (A1),A0 		;
004A68 6000 00D2            	BRA     #$00D2				;
004A6C 13FC 0000    00004DF2	MOVE.B  #$00000000,$00004DF2.L 		;
004A74 43F9         00004CE6	LEA     $00004CE6.L, A1		;
004A7A 2001                 	MOVE.L  D1,D0 		;
004A7C EB48                 	LSL.W   #5, D0		;
004A7E D3C0                 	ADDA.L  D0, A1		;
004A80 2448                 	MOVE.L  A0,A2 		;
004A82 D4E8         0004    	ADDA.W  (#$0004,A0), A2		;
004A86 234A         000C    	MOVE.L  A2,(#$000C,A1) 		;
004A8A 7000                 	MOVEQ   #$00, D0			;
004A8C 2340         0014    	MOVE.L  D0,(#$0014,A1) 		;
004A90 3028 0006            	MOVE.W  (#$0006,A0),D0 		;
004A94 6700 0008            	BEQ     #$0008				;
004A98 D088                 	ADD.L   D0, A0		;
004A9A 2340         0014    	MOVE.L  D0,(#$0014,A1) 		;
004A9E 45E8         0008    	LEA     (#$0008,A0), A2		;
004AA2 6000 004C            	BRA     #$004C				;
004AA6 13FC 0000    00004DF2	MOVE.B  #$00000000,$00004DF2.L 		;
004AAE 43F9         00004CE6	LEA     $00004CE6.L, A1		;
004AB4 2001                 	MOVE.L  D1,D0 		;
004AB6 EB48                 	LSL.W   #5, D0		;
004AB8 D3C0                 	ADDA.L  D0, A1		;
004ABA 2469 0010            	MOVE.L  (#$0010,A1),A2 		;
004ABE B5E9         000C6600	CMPA.L  (#$C6600,A1), A2		;
004AC4 002C 0CA9    0000    	ORI.B   #$0000, (#$4DF2,A4) 			;
004ACA 0000 0014            	ORI.B   #$0014, D0 			;
004ACE 6600 000E            	BNE     #$000E				;
004AD2 13FC 0001    00004DF2	MOVE.B  #$00000001,$00004DF2.L 		;
004ADA 6000 0028            	BRA     #$0028				;
004ADE 2369 0014    0010    	MOVE.L  (#$0014,A1),(#$0010,A1) 		;
004AE4 2469 0010            	MOVE.L  (#$0010,A1),A2 		;
004AE8 13FC 0002    00004DF2	MOVE.B  #$00000002,$00004DF2.L 		;
004AF0 23DA         00004DE6	MOVE.L  (A2)+,$00004DE6.L 		;
004AF6 23DA         00004DEA	MOVE.L  (A2)+,$00004DEA.L 		;
004AFC 234A         0010    	MOVE.L  A2,(#$0010,A1) 		;
004B00 6000 0002            	BRA     #$0002				;
004B04 1039 00004DEE        	MOVE.B  $00004DEE.L,D0 		;
004B0A E148                 	LSL.W   #0, D0		;
004B0C D039         00004DF2	ADD.B   D0, $00004DF2.L		;
004B12 2239 00004DE6        	MOVE.L  $00004DE6.L,D1 		;
004B18 2439 00004DEA        	MOVE.L  $00004DEA.L,D2 		;
004B1E 2606                 	MOVE.L  D6,D3 		;
004B20 0203 000F            	ANDI.B  #$000F, D3			;
004B24 D639         00004DEF	ADD.B   D3, $00004DEF.L		;
004B2A 7800                 	MOVEQ   #$00, D4			;
004B2C 1839 00004DF0        	MOVE.B  $00004DF0.L,D4 		;
004B32 4844                 	SWAP    D4		;
004B34 1839 00004DF1        	MOVE.B  $00004DF1.L,D4 		;
004B3A 4E75                 	RTS     					;
004B3C 7800                 	MOVEQ   #$00, D4			;
004B3E 7A00                 	MOVEQ   #$00, D5			;
004B40 13FC 0000    00004DEE	MOVE.B  #$00000000,$00004DEE.L 		;
004B48 4239         00004DF2	CLR     $00004DF2.L		;
004B4E 7400                 	MOVEQ   #$00, D2			;
004B50 1418                 	MOVE.B  (A0)+,D2 		;
004B52 0C02 007F            	CMPI.B  #$007F, D2			;
004B56 6300 003C            	BHI     #$003C				;
004B5A 0C02 008F            	CMPI.B  #$008F, D2			;
004B5E 6300 0020            	BHI     #$0020				;
004B62 0C02 00F0            	CMPI.B  #$00F0, D2			;
004B66 6400 0156            	BCC     #$0156				;
004B6A 49F9         00004E64	LEA     $00004E64.L, A4		;
004B70 2002                 	MOVE.L  D2,D0 		;
004B72 0400 0090            	SUBI.B  #$0090, D0			;
004B76 E848                 	LSR.W   #4, D0		;
004B78 E548                 	LSL.W   #2, D0		;
004B7A 2874 0000            	MOVE.L  (#$00,A4,D0),A4 		;
004B7E 4ED4                 	JMP     (A4)			;
004B80 49F9         00004E24	LEA     $00004E24.L, A4		;
004B86 2002                 	MOVE.L  D2,D0 		;
004B88 0400 0080            	SUBI.B  #$0080, D0			;
004B8C E548                 	LSL.W   #2, D0		;
004B8E 2874 0000            	MOVE.L  (#$00,A4,D0),A4 		;
004B92 4ED4                 	JMP     (A4)			;
004B94 1002                 	MOVE.B  D2,D0 		;
004B96 0200 001F            	ANDI.B  #$001F, D0			;
004B9A 13C0         00004DEE	MOVE.B  D0,$00004DEE.L 		;
004BA0 13FC 0090    00004DEF	MOVE.B  #$00000090,$00004DEF.L 		;
004BA8 13D8         00004DF0	MOVE.B  (A0)+,$00004DF0.L 		;
004BAE 13D8         00004DF1	MOVE.B  (A0)+,$00004DF1.L 		;
004BB4 2002                 	MOVE.L  D2,D0 		;
004BB6 0200 0040            	ANDI.B  #$0040, D0			;
004BBA E548                 	LSL.W   #2, D0		;
004BBC 1018                 	MOVE.B  (A0)+,D0 		;
004BBE D880                 	ADD.L   D0, D4		;
004BC0 23C4         00004DEA	MOVE.L  D4,$00004DEA.L 		;
004BC6 2002                 	MOVE.L  D2,D0 		;
004BC8 0200 0020            	ANDI.B  #$0020, D0			;
004BCC E748                 	LSL.W   #3, D0		;
004BCE 1018                 	MOVE.B  (A0)+,D0 		;
004BD0 DA80                 	ADD.L   D0, D5		;
004BD2 23C5         00004DE6	MOVE.L  D5,$00004DE6.L 		;
004BD8 6000 00F0            	BRA     #$00F0				;
004BDC 7000                 	MOVEQ   #$00, D0			;
004BDE 1018                 	MOVE.B  (A0)+,D0 		;
004BE0 E148                 	LSL.W   #0, D0		;
004BE2 1018                 	MOVE.B  (A0)+,D0 		;
004BE4 1358         0018    	MOVE.B  (A0)+,(#$0018,A1) 		;
004BE8 2348         0008    	MOVE.L  A0,(#$0008,A1) 		;
004BEC 2C69 000C            	MOVE.L  (#$000C,A1),A6 		;
004BF0 41F6         0800    	LEA     (#$00,A6,D0), A0		;
004BF4 6000 FF58            	BRA     #$FF58				;
004BF8 7000                 	MOVEQ   #$00, D0			;
004BFA 1018                 	MOVE.B  (A0)+,D0 		;
004BFC DA80                 	ADD.L   D0, D5		;
004BFE 23C5         00004DE6	MOVE.L  D5,$00004DE6.L 		;
004C04 0CA9 000000000004    	CMPI.L  #$00000000, (#$0004,A1)			;
004C0C 6600 000A            	BNE     #$000A				;
004C10 2348         0004    	MOVE.L  A0,(#$0004,A1) 		;
004C14 6000 FF38            	BRA     #$FF38				;
004C18 2069 0004            	MOVE.L  (#$0004,A1),A0 		;
004C1C 6000 FF30            	BRA     #$FF30				;
004C20 13FC 0001    00004DF2	MOVE.B  #$00000001,$00004DF2.L 		;
004C28 6000 FEDA            	BRA     #$FEDA				;
004C2C 13D8         00004DF0	MOVE.B  (A0)+,$00004DF0.L 		;
004C32 08B9 0007    00004DF0	BCLR    #$07, $00004DF0.L			;
004C3A 6000 0028            	BRA     #$0028				;
004C3E 13D8         00004DF1	MOVE.B  (A0)+,$00004DF1.L 		;
004C44 08B9 0007    00004DF1	BCLR    #$07, $00004DF1.L			;
004C4C 6000 0016            	BRA     #$0016				;
004C50 13D8         00004DF0	MOVE.B  (A0)+,$00004DF0.L 		;
004C56 13D8         00004DF1	MOVE.B  (A0)+,$00004DF1.L 		;
004C5C 08B9 0007    00004DF0	BCLR    #$07, $00004DF0.L			;
004C64 6700 000A            	BEQ     #$000A				;
004C68 08F9 0004    00004DEE	BSET    #$04, $00004DEE.L			;
004C70 2002                 	MOVE.L  D2,D0 		;
004C72 0200 000F            	ANDI.B  #$000F, D0			;
004C76 8139         00004DEE	OR.B    D0, $00004DEE.L		;
004C7C 0202 00F0            	ANDI.B  #$00F0, D2			;
004C80 13C2         00004DEF	MOVE.B  D2,$00004DEF.L 		;
004C86 7000                 	MOVEQ   #$00, D0			;
004C88 1018                 	MOVE.B  (A0)+,D0 		;
004C8A DA80                 	ADD.L   D0, D5		;
004C8C 23C5         00004DE6	MOVE.L  D5,$00004DE6.L 		;
004C92 6000 0036            	BRA     #$0036				;
004C96 49F9         00004E14	LEA     $00004E14.L, A4		;
004C9C 0402 0088            	SUBI.B  #$0088, D2			;
004CA0 E50A                 	LSL.B   #2, D2		;
004CA2 D8B4         2800    	ADD.L   (#$00,A4,D2), D4		;
004CA6 6000 FEA6            	BRA     #$FEA6				;
004CAA 49F9         00004E04	LEA     $00004E04.L, A4		;
004CB0 0402 008C            	SUBI.B  #$008C, D2			;
004CB4 E50A                 	LSL.B   #2, D2		;
004CB6 DAB4         2800    	ADD.L   (#$00,A4,D2), D5		;
004CBA 6000 FE92            	BRA     #$FE92				;
004CBE 13FC 00FF    00004DF2	MOVE.B  #$000000FF,$00004DF2.L 		;
004CC6 6000 FE3C            	BRA     #$FE3C				;
004CCA 0C29 0000    0018    	CMPI.B  #$0000, (#$0018,A1)			;
004CD0 6700 000E            	BEQ     #$000E				;
004CD4 5329         0018    	SUBQ.B  #$1, (#$0018,A1)			;
004CD8 6600 0006            	BNE     #$0006				;
004CDC 2069 0008            	MOVE.L  (#$0008,A1),A0 		;
004CE0 2288                 	MOVE.L  A0,(A1) 		;
004CE2 6000 FE20            	BRA     #$FE20				;
